$ fq -d elf v a_stripped
      |00 01 02 03 04 05 06 07 08 09 0a 0b 0c 0d 0e 0f|0123456789abcdef|.{}: a_stripped (elf) 0x0-0x1697.7 (5784)
      |                                               |                |  header{}: 0x0-0x3f.7 (64)
      |                                               |                |    ident{}: 0x0-0xf.7 (16)
0x0000|7f 45 4c 46                                    |.ELF            |      magic: raw bits (valid) 0x0-0x3.7 (4)
0x0000|            02                                 |    .           |      class: 64 (2) 0x4-0x4.7 (1)
0x0000|               01                              |     .          |      data: "little_endian" (1) 0x5-0x5.7 (1)
0x0000|                  01                           |      .         |      version: 1 0x6-0x6.7 (1)
0x0000|                     00                        |       .        |      os_abi: "sysv" (0) 0x7-0x7.7 (1)
0x0000|                        00                     |        .       |      abi_version: 0 0x8-0x8.7 (1)
0x0000|                           00 00 00 00 00 00 00|         .......|      pad: raw bits (all zero) 0x9-0xf.7 (7)
0x0010|03 00                                          |..              |    type: "dyn" (0x3) 0x10-0x11.7 (2)
0x0010|      b7 00                                    |  ..            |    machine: "arm64" (0xb7) (ARM 64-bits (ARMv8/Aarch64)) 0x12-0x13.7 (2)
0x0010|            01 00 00 00                        |    ....        |    version: 1 0x14-0x17.7 (4)
0x0010|                        70 06 00 00 00 00 00 00|        p.......|    entry: 1648 0x18-0x1f.7 (8)
0x0020|40 00 00 00 00 00 00 00                        |@.......        |    phoff: 64 0x20-0x27.7 (8)
0x0020|                        18 11 00 00 00 00 00 00|        ........|    shoff: 4376 0x28-0x2f.7 (8)
0x0030|00 00 00 00                                    |....            |    flags: 0 0x30-0x33.7 (4)
0x0030|            40 00                              |    @.          |    ehsize: 64 0x34-0x35.7 (2)
0x0030|                  38 00                        |      8.        |    phentsize: 56 0x36-0x37.7 (2)
0x0030|                        08 00                  |        ..      |    phnum: 8 0x38-0x39.7 (2)
0x0030|                              40 00            |          @.    |    shentsize: 64 0x3a-0x3b.7 (2)
0x0030|                                    16 00      |            ..  |    shnum: 22 0x3c-0x3d.7 (2)
0x0030|                                          15 00|              ..|    shstrndx: 21 0x3e-0x3f.7 (2)
      |                                               |                |  program_headers[0:8]: 0x0-0x1007.7 (4104)
      |                                               |                |    [0]{}: program_header 0x0-0x1c7.7 (456)
      |                                               |                |      program_header{}: 0x0-0x1c7.7 (456)
      |                                               |                |        data: raw bits 0x0-NA (0)
0x0190|51 e5 74 64                                    |Q.td            |        type: "gnu_stack" (1685382481) (GNU stack permission) 0x190-0x193.7 (4)
      |                                               |                |        flags{}: 0x194-0x197.7 (4)
0x0190|            06                                 |    .           |          unused0: 0 0x194-0x194.4 (0.5)
0x0190|            06                                 |    .           |          r: true 0x194.5-0x194.5 (0.1)
0x0190|            06                                 |    .           |          w: true 0x194.6-0x194.6 (0.1)
0x0190|            06                                 |    .           |          x: false 0x194.7-0x194.7 (0.1)
0x0190|               00 00 00                        |     ...        |          unused1: 0 0x195-0x197.7 (3)
0x0190|                        00 00 00 00 00 00 00 00|        ........|        offset: 0x0 0x198-0x19f.7 (8)
0x01a0|00 00 00 00 00 00 00 00                        |........        |        vaddr: 0x0 0x1a0-0x1a7.7 (8)
0x01a0|                        00 00 00 00 00 00 00 00|        ........|        paddr: 0x0 0x1a8-0x1af.7 (8)
0x01b0|00 00 00 00 00 00 00 00                        |........        |        filesz: 0 0x1b0-0x1b7.7 (8)
0x01b0|                        00 00 00 00 00 00 00 00|        ........|        memsz: 0 0x1b8-0x1bf.7 (8)
0x01c0|10 00 00 00 00 00 00 00                        |........        |        align: 16 0x1c0-0x1c7.7 (8)
      |                                               |                |    [1]{}: program_header 0x0-0x913.7 (2324)
      |                                               |                |      program_header{}: 0x0-0x913.7 (2324)
0x0000|7f 45 4c 46 02 01 01 00 00 00 00 00 00 00 00 00|.ELF............|        data: raw bits 0x0-0x913.7 (2324)
*     |until 0x913.7 (2324)                           |                |
0x00b0|01 00 00 00                                    |....            |        type: "load" (1) (Loadable segment) 0xb0-0xb3.7 (4)
      |                                               |                |        flags{}: 0xb4-0xb7.7 (4)
0x00b0|            05                                 |    .           |          unused0: 0 0xb4-0xb4.4 (0.5)
0x00b0|            05                                 |    .           |          r: true 0xb4.5-0xb4.5 (0.1)
0x00b0|            05                                 |    .           |          w: false 0xb4.6-0xb4.6 (0.1)
0x00b0|            05                                 |    .           |          x: true 0xb4.7-0xb4.7 (0.1)
0x00b0|               00 00 00                        |     ...        |          unused1: 0 0xb5-0xb7.7 (3)
0x00b0|                        00 00 00 00 00 00 00 00|        ........|        offset: 0x0 0xb8-0xbf.7 (8)
0x00c0|00 00 00 00 00 00 00 00                        |........        |        vaddr: 0x0 0xc0-0xc7.7 (8)
0x00c0|                        00 00 00 00 00 00 00 00|        ........|        paddr: 0x0 0xc8-0xcf.7 (8)
0x00d0|14 09 00 00 00 00 00 00                        |........        |        filesz: 2324 0xd0-0xd7.7 (8)
0x00d0|                        14 09 00 00 00 00 00 00|        ........|        memsz: 2324 0xd8-0xdf.7 (8)
0x00e0|00 00 01 00 00 00 00 00                        |........        |        align: 65536 0xe0-0xe7.7 (8)
      |                                               |                |    [2]{}: program_header 0x40-0x1ff.7 (448)
      |                                               |                |      program_header{}: 0x40-0x1ff.7 (448)
0x0040|06 00 00 00                                    |....            |        type: "phdr" (6) (Program header location and size) 0x40-0x43.7 (4)
0x0040|06 00 00 00 04 00 00 00 40 00 00 00 00 00 00 00|........@.......|        data: raw bits 0x40-0x1ff.7 (448)
*     |until 0x1ff.7 (448)                            |                |
      |                                               |                |        flags{}: 0x44-0x47.7 (4)
0x0040|            04                                 |    .           |          unused0: 0 0x44-0x44.4 (0.5)
0x0040|            04                                 |    .           |          r: true 0x44.5-0x44.5 (0.1)
0x0040|            04                                 |    .           |          w: false 0x44.6-0x44.6 (0.1)
0x0040|            04                                 |    .           |          x: false 0x44.7-0x44.7 (0.1)
0x0040|               00 00 00                        |     ...        |          unused1: 0 0x45-0x47.7 (3)
0x0040|                        40 00 00 00 00 00 00 00|        @.......|        offset: 0x40 0x48-0x4f.7 (8)
0x0050|40 00 00 00 00 00 00 00                        |@.......        |        vaddr: 0x40 0x50-0x57.7 (8)
0x0050|                        40 00 00 00 00 00 00 00|        @.......|        paddr: 0x40 0x58-0x5f.7 (8)
0x0060|c0 01 00 00 00 00 00 00                        |........        |        filesz: 448 0x60-0x67.7 (8)
0x0060|                        c0 01 00 00 00 00 00 00|        ........|        memsz: 448 0x68-0x6f.7 (8)
0x0070|08 00 00 00 00 00 00 00                        |........        |        align: 8 0x70-0x77.7 (8)
      |                                               |                |    [3]{}: program_header 0x78-0x219.7 (418)
      |                                               |                |      program_header{}: 0x78-0x219.7 (418)
0x0070|                        03 00 00 00            |        ....    |        type: "interp" (3) (Interpreter to invoke) 0x78-0x7b.7 (4)
      |                                               |                |        flags{}: 0x7c-0x7f.7 (4)
0x0070|                                    04         |            .   |          unused0: 0 0x7c-0x7c.4 (0.5)
0x0070|                                    04         |            .   |          r: true 0x7c.5-0x7c.5 (0.1)
0x0070|                                    04         |            .   |          w: false 0x7c.6-0x7c.6 (0.1)
0x0070|                                    04         |            .   |          x: false 0x7c.7-0x7c.7 (0.1)
0x0070|                                       00 00 00|             ...|          unused1: 0 0x7d-0x7f.7 (3)
0x0080|00 02 00 00 00 00 00 00                        |........        |        offset: 0x200 0x80-0x87.7 (8)
0x0080|                        00 02 00 00 00 00 00 00|        ........|        vaddr: 0x200 0x88-0x8f.7 (8)
0x0090|00 02 00 00 00 00 00 00                        |........        |        paddr: 0x200 0x90-0x97.7 (8)
0x0090|                        1a 00 00 00 00 00 00 00|        ........|        filesz: 26 0x98-0x9f.7 (8)
0x00a0|1a 00 00 00 00 00 00 00                        |........        |        memsz: 26 0xa0-0xa7.7 (8)
0x00a0|                        01 00 00 00 00 00 00 00|        ........|        align: 1 0xa8-0xaf.7 (8)
0x0200|2f 6c 69 62 2f 6c 64 2d 6d 75 73 6c 2d 61 61 72|/lib/ld-musl-aar|        data: raw bits 0x200-0x219.7 (26)
0x0210|63 68 36 34 2e 73 6f 2e 31 00                  |ch64.so.1.      |
      |                                               |                |    [4]{}: program_header 0xe8-0x1007.7 (3872)
      |                                               |                |      program_header{}: 0xe8-0x1007.7 (3872)
0x00e0|                        01 00 00 00            |        ....    |        type: "load" (1) (Loadable segment) 0xe8-0xeb.7 (4)
      |                                               |                |        flags{}: 0xec-0xef.7 (4)
0x00e0|                                    06         |            .   |          unused0: 0 0xec-0xec.4 (0.5)
0x00e0|                                    06         |            .   |          r: true 0xec.5-0xec.5 (0.1)
0x00e0|                                    06         |            .   |          w: true 0xec.6-0xec.6 (0.1)
0x00e0|                                    06         |            .   |          x: false 0xec.7-0xec.7 (0.1)
0x00e0|                                       00 00 00|             ...|          unused1: 0 0xed-0xef.7 (3)
0x00f0|90 0d 00 00 00 00 00 00                        |........        |        offset: 0xd90 0xf0-0xf7.7 (8)
0x00f0|                        90 0d 01 00 00 00 00 00|        ........|        vaddr: 0x10d90 0xf8-0xff.7 (8)
0x0100|90 0d 01 00 00 00 00 00                        |........        |        paddr: 0x10d90 0x100-0x107.7 (8)
0x0100|                        78 02 00 00 00 00 00 00|        x.......|        filesz: 632 0x108-0x10f.7 (8)
0x0110|b0 02 00 00 00 00 00 00                        |........        |        memsz: 688 0x110-0x117.7 (8)
0x0110|                        00 00 01 00 00 00 00 00|        ........|        align: 65536 0x118-0x11f.7 (8)
0x0d90|90 07 00 00 00 00 00 00 30 07 00 00 00 00 00 00|........0.......|        data: raw bits 0xd90-0x1007.7 (632)
*     |until 0x1007.7 (632)                           |                |
      |                                               |                |    [5]{}: program_header 0x120-0xf6f.7 (3664)
      |                                               |                |      program_header{}: 0x120-0xf6f.7 (3664)
0x0120|02 00 00 00                                    |....            |        type: "dynamic" (2) (Dynamic linking information) 0x120-0x123.7 (4)
      |                                               |                |        flags{}: 0x124-0x127.7 (4)
0x0120|            06                                 |    .           |          unused0: 0 0x124-0x124.4 (0.5)
0x0120|            06                                 |    .           |          r: true 0x124.5-0x124.5 (0.1)
0x0120|            06                                 |    .           |          w: true 0x124.6-0x124.6 (0.1)
0x0120|            06                                 |    .           |          x: false 0x124.7-0x124.7 (0.1)
0x0120|               00 00 00                        |     ...        |          unused1: 0 0x125-0x127.7 (3)
0x0120|                        a0 0d 00 00 00 00 00 00|        ........|        offset: 0xda0 0x128-0x12f.7 (8)
0x0130|a0 0d 01 00 00 00 00 00                        |........        |        vaddr: 0x10da0 0x130-0x137.7 (8)
0x0130|                        a0 0d 01 00 00 00 00 00|        ........|        paddr: 0x10da0 0x138-0x13f.7 (8)
0x0140|d0 01 00 00 00 00 00 00                        |........        |        filesz: 464 0x140-0x147.7 (8)
0x0140|                        d0 01 00 00 00 00 00 00|        ........|        memsz: 464 0x148-0x14f.7 (8)
0x0150|08 00 00 00 00 00 00 00                        |........        |        align: 8 0x150-0x157.7 (8)
0x0da0|01 00 00 00 00 00 00 00 a2 00 00 00 00 00 00 00|................|        data: raw bits 0xda0-0xf6f.7 (464)
*     |until 0xf6f.7 (464)                            |                |
      |                                               |                |    [6]{}: program_header 0x158-0x84f.7 (1784)
      |                                               |                |      program_header{}: 0x158-0x84f.7 (1784)
0x0150|                        50 e5 74 64            |        P.td    |        type: "gnu_eh_frame" (1685382480) (GNU frame unwind information) 0x158-0x15b.7 (4)
      |                                               |                |        flags{}: 0x15c-0x15f.7 (4)
0x0150|                                    04         |            .   |          unused0: 0 0x15c-0x15c.4 (0.5)
0x0150|                                    04         |            .   |          r: true 0x15c.5-0x15c.5 (0.1)
0x0150|                                    04         |            .   |          w: false 0x15c.6-0x15c.6 (0.1)
0x0150|                                    04         |            .   |          x: false 0x15c.7-0x15c.7 (0.1)
0x0150|                                       00 00 00|             ...|          unused1: 0 0x15d-0x15f.7 (3)
0x0160|14 08 00 00 00 00 00 00                        |........        |        offset: 0x814 0x160-0x167.7 (8)
0x0160|                        14 08 00 00 00 00 00 00|        ........|        vaddr: 0x814 0x168-0x16f.7 (8)
0x0170|14 08 00 00 00 00 00 00                        |........        |        paddr: 0x814 0x170-0x177.7 (8)
0x0170|                        3c 00 00 00 00 00 00 00|        <.......|        filesz: 60 0x178-0x17f.7 (8)
0x0180|3c 00 00 00 00 00 00 00                        |<.......        |        memsz: 60 0x180-0x187.7 (8)
0x0180|                        04 00 00 00 00 00 00 00|        ........|        align: 4 0x188-0x18f.7 (8)
0x0810|            01 1b 03 3b 38 00 00 00 06 00 00 00|    ...;8.......|        data: raw bits 0x814-0x84f.7 (60)
0x0820|ac fe ff ff 50 00 00 00 dc fe ff ff 64 00 00 00|....P.......d...|
*     |until 0x84f.7 (60)                             |                |
      |                                               |                |    [7]{}: program_header 0x1c8-0xfff.7 (3640)
      |                                               |                |      program_header{}: 0x1c8-0xfff.7 (3640)
0x01c0|                        52 e5 74 64            |        R.td    |        type: "gnu_relro" (1685382482) (GNU read-only after relocation) 0x1c8-0x1cb.7 (4)
      |                                               |                |        flags{}: 0x1cc-0x1cf.7 (4)
0x01c0|                                    04         |            .   |          unused0: 0 0x1cc-0x1cc.4 (0.5)
0x01c0|                                    04         |            .   |          r: true 0x1cc.5-0x1cc.5 (0.1)
0x01c0|                                    04         |            .   |          w: false 0x1cc.6-0x1cc.6 (0.1)
0x01c0|                                    04         |            .   |          x: false 0x1cc.7-0x1cc.7 (0.1)
0x01c0|                                       00 00 00|             ...|          unused1: 0 0x1cd-0x1cf.7 (3)
0x01d0|90 0d 00 00 00 00 00 00                        |........        |        offset: 0xd90 0x1d0-0x1d7.7 (8)
0x01d0|                        90 0d 01 00 00 00 00 00|        ........|        vaddr: 0x10d90 0x1d8-0x1df.7 (8)
0x01e0|90 0d 01 00 00 00 00 00                        |........        |        paddr: 0x10d90 0x1e0-0x1e7.7 (8)
0x01e0|                        70 02 00 00 00 00 00 00|        p.......|        filesz: 624 0x1e8-0x1ef.7 (8)
0x01f0|70 02 00 00 00 00 00 00                        |p.......        |        memsz: 624 0x1f0-0x1f7.7 (8)
0x01f0|                        01 00 00 00 00 00 00 00|        ........|        align: 1 0x1f8-0x1ff.7 (8)
0x0d90|90 07 00 00 00 00 00 00 30 07 00 00 00 00 00 00|........0.......|        data: raw bits 0xd90-0xfff.7 (624)
*     |until 0xfff.7 (624)                            |                |
      |                                               |                |  section_headers[0:22]: 0x0-0x1697.7 (5784)
      |                                               |                |    [0]{}: section_header 0x0-0x1157.7 (4440)
      |                                               |                |      data: raw bits 0x0-NA (0)
0x1110|                        00 00 00 00            |        ....    |      name: "" (0) 0x1118-0x111b.7 (4)
0x1110|                                    00 00 00 00|            ....|      type: "null" (0x0) (Header inactive) 0x111c-0x111f.7 (4)
      |                                               |                |      flags{}: 0x1120-0x1127.7 (8)
0x1120|00                                             |.               |        link_order: false 0x1120-0x1120 (0.1)
0x1120|00                                             |.               |        info_link: false 0x1120.1-0x1120.1 (0.1)
0x1120|00                                             |.               |        strings: false 0x1120.2-0x1120.2 (0.1)
0x1120|00                                             |.               |        merge: false 0x1120.3-0x1120.3 (0.1)
0x1120|00                                             |.               |        unused0: 0 0x1120.4-0x1120.4 (0.1)
0x1120|00                                             |.               |        execinstr: false 0x1120.5-0x1120.5 (0.1)
0x1120|00                                             |.               |        alloc: false 0x1120.6-0x1120.6 (0.1)
0x1120|00                                             |.               |        write: false 0x1120.7-0x1120.7 (0.1)
0x1120|   00                                          | .              |        tls: false 0x1121-0x1121 (0.1)
0x1120|   00                                          | .              |        group: false 0x1121.1-0x1121.1 (0.1)
0x1120|   00                                          | .              |        os_nonconforming: false 0x1121.2-0x1121.2 (0.1)
0x1120|   00 00                                       | ..             |        unused1: 0 0x1121.3-0x1122.3 (1.1)
0x1120|      00 00                                    |  ..            |        os_specific: 0 0x1122.4-0x1123.3 (1)
0x1120|         00                                    |   .            |        processor_specific: 0 0x1123.4-0x1123.7 (0.4)
0x1120|            00 00 00 00                        |    ....        |        unused2: 0 0x1124-0x1127.7 (4)
0x1120|                        00 00 00 00 00 00 00 00|        ........|      addr: 0x0 0x1128-0x112f.7 (8)
0x1130|00 00 00 00 00 00 00 00                        |........        |      offset: 0x0 0x1130-0x1137.7 (8)
0x1130|                        00 00 00 00 00 00 00 00|        ........|      size: 0 0x1138-0x113f.7 (8)
0x1140|00 00 00 00                                    |....            |      link: 0 0x1140-0x1143.7 (4)
0x1140|            00 00 00 00                        |    ....        |      info: 0 0x1144-0x1147.7 (4)
0x1140|                        00 00 00 00 00 00 00 00|        ........|      addralign: 0 0x1148-0x114f.7 (8)
0x1150|00 00 00 00 00 00 00 00                        |........        |      entsize: 0 0x1150-0x1157.7 (8)
      |                                               |                |    [1]{}: section_header 0x200-0x1197.7 (3992)
0x0200|2f 6c 69 62 2f 6c 64 2d 6d 75 73 6c 2d 61 61 72|/lib/ld-musl-aar|      data: raw bits 0x200-0x219.7 (26)
0x0210|63 68 36 34 2e 73 6f 2e 31 00                  |ch64.so.1.      |
0x1150|                        0b 00 00 00            |        ....    |      name: ".interp" (11) 0x1158-0x115b.7 (4)
0x1150|                                    01 00 00 00|            ....|      type: "progbits" (0x1) (Information defined by the program) 0x115c-0x115f.7 (4)
      |                                               |                |      flags{}: 0x1160-0x1167.7 (8)
0x1160|02                                             |.               |        link_order: false 0x1160-0x1160 (0.1)
0x1160|02                                             |.               |        info_link: false 0x1160.1-0x1160.1 (0.1)
0x1160|02                                             |.               |        strings: false 0x1160.2-0x1160.2 (0.1)
0x1160|02                                             |.               |        merge: false 0x1160.3-0x1160.3 (0.1)
0x1160|02                                             |.               |        unused0: 0 0x1160.4-0x1160.4 (0.1)
0x1160|02                                             |.               |        execinstr: false 0x1160.5-0x1160.5 (0.1)
0x1160|02                                             |.               |        alloc: true 0x1160.6-0x1160.6 (0.1)
0x1160|02                                             |.               |        write: false 0x1160.7-0x1160.7 (0.1)
0x1160|   00                                          | .              |        tls: false 0x1161-0x1161 (0.1)
0x1160|   00                                          | .              |        group: false 0x1161.1-0x1161.1 (0.1)
0x1160|   00                                          | .              |        os_nonconforming: false 0x1161.2-0x1161.2 (0.1)
0x1160|   00 00                                       | ..             |        unused1: 0 0x1161.3-0x1162.3 (1.1)
0x1160|      00 00                                    |  ..            |        os_specific: 0 0x1162.4-0x1163.3 (1)
0x1160|         00                                    |   .            |        processor_specific: 0 0x1163.4-0x1163.7 (0.4)
0x1160|            00 00 00 00                        |    ....        |        unused2: 0 0x1164-0x1167.7 (4)
0x1160|                        00 02 00 00 00 00 00 00|        ........|      addr: 0x200 0x1168-0x116f.7 (8)
0x1170|00 02 00 00 00 00 00 00                        |........        |      offset: 0x200 0x1170-0x1177.7 (8)
0x1170|                        1a 00 00 00 00 00 00 00|        ........|      size: 26 0x1178-0x117f.7 (8)
0x1180|00 00 00 00                                    |....            |      link: 0 0x1180-0x1183.7 (4)
0x1180|            00 00 00 00                        |    ....        |      info: 0 0x1184-0x1187.7 (4)
0x1180|                        01 00 00 00 00 00 00 00|        ........|      addralign: 1 0x1188-0x118f.7 (8)
0x1190|00 00 00 00 00 00 00 00                        |........        |      entsize: 0 0x1190-0x1197.7 (8)
      |                                               |                |    [2]{}: section_header 0x220-0x11d7.7 (4024)
      |                                               |                |      gnu_hash{}: 0x220-0x23f.7 (32)
0x0220|02 00 00 00                                    |....            |        nbuckets: 2 0x220-0x223.7 (4)
0x0220|            0b 00 00 00                        |    ....        |        symndx: 11 0x224-0x227.7 (4)
0x0220|                        01 00 00 00            |        ....    |        maskwords: 1 0x228-0x22b.7 (4)
0x0220|                                    06 00 00 00|            ....|        shift2: 6 0x22c-0x22f.7 (4)
      |                                               |                |        bloom_filter[0:1]: 0x230-0x237.7 (8)
0x0230|00 80 00 00 00 04 40 01                        |......@.        |          [0]: 90076390593953792 maskword 0x230-0x237.7 (8)
      |                                               |                |        buckets[0:2]: 0x238-0x23f.7 (8)
0x0230|                        0b 00 00 00            |        ....    |          [0]: 11 bucket 0x238-0x23b.7 (4)
0x0230|                                    00 00 00 00|            ....|          [1]: 0 bucket 0x23c-0x23f.7 (4)
0x1190|                        13 00 00 00            |        ....    |      name: ".gnu.hash" (19) 0x1198-0x119b.7 (4)
0x1190|                                    f6 ff ff 6f|            ...o|      type: "gnu_hash" (0x6ffffff6) (GNU symbol hash table) 0x119c-0x119f.7 (4)
      |                                               |                |      flags{}: 0x11a0-0x11a7.7 (8)
0x11a0|02                                             |.               |        link_order: false 0x11a0-0x11a0 (0.1)
0x11a0|02                                             |.               |        info_link: false 0x11a0.1-0x11a0.1 (0.1)
0x11a0|02                                             |.               |        strings: false 0x11a0.2-0x11a0.2 (0.1)
0x11a0|02                                             |.               |        merge: false 0x11a0.3-0x11a0.3 (0.1)
0x11a0|02                                             |.               |        unused0: 0 0x11a0.4-0x11a0.4 (0.1)
0x11a0|02                                             |.               |        execinstr: false 0x11a0.5-0x11a0.5 (0.1)
0x11a0|02                                             |.               |        alloc: true 0x11a0.6-0x11a0.6 (0.1)
0x11a0|02                                             |.               |        write: false 0x11a0.7-0x11a0.7 (0.1)
0x11a0|   00                                          | .              |        tls: false 0x11a1-0x11a1 (0.1)
0x11a0|   00                                          | .              |        group: false 0x11a1.1-0x11a1.1 (0.1)
0x11a0|   00                                          | .              |        os_nonconforming: false 0x11a1.2-0x11a1.2 (0.1)
0x11a0|   00 00                                       | ..             |        unused1: 0 0x11a1.3-0x11a2.3 (1.1)
0x11a0|      00 00                                    |  ..            |        os_specific: 0 0x11a2.4-0x11a3.3 (1)
0x11a0|         00                                    |   .            |        processor_specific: 0 0x11a3.4-0x11a3.7 (0.4)
0x11a0|            00 00 00 00                        |    ....        |        unused2: 0 0x11a4-0x11a7.7 (4)
0x11a0|                        20 02 00 00 00 00 00 00|         .......|      addr: 0x220 0x11a8-0x11af.7 (8)
0x11b0|20 02 00 00 00 00 00 00                        | .......        |      offset: 0x220 0x11b0-0x11b7.7 (8)
0x11b0|                        28 00 00 00 00 00 00 00|        (.......|      size: 40 0x11b8-0x11bf.7 (8)
0x11c0|03 00 00 00                                    |....            |      link: 3 0x11c0-0x11c3.7 (4)
0x11c0|            00 00 00 00                        |    ....        |      info: 0 0x11c4-0x11c7.7 (4)
0x11c0|                        08 00 00 00 00 00 00 00|        ........|      addralign: 8 0x11c8-0x11cf.7 (8)
0x11d0|00 00 00 00 00 00 00 00                        |........        |      entsize: 0 0x11d0-0x11d7.7 (8)
      |                                               |                |    [3]{}: section_header 0x248-0x1217.7 (4048)
      |                                               |                |      symbol_table[0:13]: 0x248-0x37f.7 (312)
      |                                               |                |        [0]{}: symbol 0x248-0x25f.7 (24)
0x0240|                        00 00 00 00            |        ....    |          name: "" (0) 0x248-0x24b.7 (4)
0x0240|                                    00         |            .   |          bind: "local" (0) 0x24c-0x24c.3 (0.4)
0x0240|                                    00         |            .   |          type: "notype" (0) 0x24c.4-0x24c.7 (0.4)
0x0240|                                       00      |             .  |          other_unused: 0 0x24d-0x24d.5 (0.6)
0x0240|                                       00      |             .  |          visibility: "default" (0) 0x24d.6-0x24d.7 (0.2)
0x0240|                                          00 00|              ..|          shndx: 0 0x24e-0x24f.7 (2)
0x0250|00 00 00 00 00 00 00 00                        |........        |          value: 0 0x250-0x257.7 (8)
0x0250|                        00 00 00 00 00 00 00 00|        ........|          size: 0 0x258-0x25f.7 (8)
      |                                               |                |        [1]{}: symbol 0x260-0x277.7 (24)
0x0260|00 00 00 00                                    |....            |          name: "" (0) 0x260-0x263.7 (4)
0x0260|            03                                 |    .           |          bind: "local" (0) 0x264-0x264.3 (0.4)
0x0260|            03                                 |    .           |          type: "section" (3) 0x264.4-0x264.7 (0.4)
0x0260|               00                              |     .          |          other_unused: 0 0x265-0x265.5 (0.6)
0x0260|               00                              |     .          |          visibility: "default" (0) 0x265.6-0x265.7 (0.2)
0x0260|                  07 00                        |      ..        |          shndx: 7 0x266-0x267.7 (2)
0x0260|                        e0 05 00 00 00 00 00 00|        ........|          value: 1504 0x268-0x26f.7 (8)
0x0270|00 00 00 00 00 00 00 00                        |........        |          size: 0 0x270-0x277.7 (8)
      |                                               |                |        [2]{}: symbol 0x278-0x28f.7 (24)
0x0270|                        00 00 00 00            |        ....    |          name: "" (0) 0x278-0x27b.7 (4)
0x0270|                                    03         |            .   |          bind: "local" (0) 0x27c-0x27c.3 (0.4)
0x0270|                                    03         |            .   |          type: "section" (3) 0x27c.4-0x27c.7 (0.4)
0x0270|                                       00      |             .  |          other_unused: 0 0x27d-0x27d.5 (0.6)
0x0270|                                       00      |             .  |          visibility: "default" (0) 0x27d.6-0x27d.7 (0.2)
0x0270|                                          12 00|              ..|          shndx: 18 0x27e-0x27f.7 (2)
0x0280|00 10 01 00 00 00 00 00                        |........        |          value: 69632 0x280-0x287.7 (8)
0x0280|                        00 00 00 00 00 00 00 00|        ........|          size: 0 0x288-0x28f.7 (8)
      |                                               |                |        [3]{}: symbol 0x290-0x2a7.7 (24)
0x0290|01 00 00 00                                    |....            |          name: "puts" (1) 0x290-0x293.7 (4)
0x0290|            12                                 |    .           |          bind: "global" (1) 0x294-0x294.3 (0.4)
0x0290|            12                                 |    .           |          type: "func" (2) 0x294.4-0x294.7 (0.4)
0x0290|               00                              |     .          |          other_unused: 0 0x295-0x295.5 (0.6)
0x0290|               00                              |     .          |          visibility: "default" (0) 0x295.6-0x295.7 (0.2)
0x0290|                  00 00                        |      ..        |          shndx: 0 0x296-0x297.7 (2)
0x0290|                        00 00 00 00 00 00 00 00|        ........|          value: 0 0x298-0x29f.7 (8)
0x02a0|00 00 00 00 00 00 00 00                        |........        |          size: 0 0x2a0-0x2a7.7 (8)
      |                                               |                |        [4]{}: symbol 0x2a8-0x2bf.7 (24)
0x02a0|                        06 00 00 00            |        ....    |          name: "__cxa_finalize" (6) 0x2a8-0x2ab.7 (4)
0x02a0|                                    22         |            "   |          bind: "weak" (2) 0x2ac-0x2ac.3 (0.4)
0x02a0|                                    22         |            "   |          type: "func" (2) 0x2ac.4-0x2ac.7 (0.4)
0x02a0|                                       00      |             .  |          other_unused: 0 0x2ad-0x2ad.5 (0.6)
0x02a0|                                       00      |             .  |          visibility: "default" (0) 0x2ad.6-0x2ad.7 (0.2)
0x02a0|                                          00 00|              ..|          shndx: 0 0x2ae-0x2af.7 (2)
0x02b0|00 00 00 00 00 00 00 00                        |........        |          value: 0 0x2b0-0x2b7.7 (8)
0x02b0|                        00 00 00 00 00 00 00 00|        ........|          size: 0 0x2b8-0x2bf.7 (8)
      |                                               |                |        [5]{}: symbol 0x2c0-0x2d7.7 (24)
0x02c0|15 00 00 00                                    |....            |          name: "__deregister_frame_info" (21) 0x2c0-0x2c3.7 (4)
0x02c0|            20                                 |                |          bind: "weak" (2) 0x2c4-0x2c4.3 (0.4)
0x02c0|            20                                 |                |          type: "notype" (0) 0x2c4.4-0x2c4.7 (0.4)
0x02c0|               00                              |     .          |          other_unused: 0 0x2c5-0x2c5.5 (0.6)
0x02c0|               00                              |     .          |          visibility: "default" (0) 0x2c5.6-0x2c5.7 (0.2)
0x02c0|                  00 00                        |      ..        |          shndx: 0 0x2c6-0x2c7.7 (2)
0x02c0|                        00 00 00 00 00 00 00 00|        ........|          value: 0 0x2c8-0x2cf.7 (8)
0x02d0|00 00 00 00 00 00 00 00                        |........        |          size: 0 0x2d0-0x2d7.7 (8)
      |                                               |                |        [6]{}: symbol 0x2d8-0x2ef.7 (24)
0x02d0|                        2d 00 00 00            |        -...    |          name: "_ITM_registerTMCloneTable" (45) 0x2d8-0x2db.7 (4)
0x02d0|                                    20         |                |          bind: "weak" (2) 0x2dc-0x2dc.3 (0.4)
0x02d0|                                    20         |                |          type: "notype" (0) 0x2dc.4-0x2dc.7 (0.4)
0x02d0|                                       00      |             .  |          other_unused: 0 0x2dd-0x2dd.5 (0.6)
0x02d0|                                       00      |             .  |          visibility: "default" (0) 0x2dd.6-0x2dd.7 (0.2)
0x02d0|                                          00 00|              ..|          shndx: 0 0x2de-0x2df.7 (2)
0x02e0|00 00 00 00 00 00 00 00                        |........        |          value: 0 0x2e0-0x2e7.7 (8)
0x02e0|                        00 00 00 00 00 00 00 00|        ........|          size: 0 0x2e8-0x2ef.7 (8)
      |                                               |                |        [7]{}: symbol 0x2f0-0x307.7 (24)
0x02f0|47 00 00 00                                    |G...            |          name: "_ITM_deregisterTMCloneTable" (71) 0x2f0-0x2f3.7 (4)
0x02f0|            20                                 |                |          bind: "weak" (2) 0x2f4-0x2f4.3 (0.4)
0x02f0|            20                                 |                |          type: "notype" (0) 0x2f4.4-0x2f4.7 (0.4)
0x02f0|               00                              |     .          |          other_unused: 0 0x2f5-0x2f5.5 (0.6)
0x02f0|               00                              |     .          |          visibility: "default" (0) 0x2f5.6-0x2f5.7 (0.2)
0x02f0|                  00 00                        |      ..        |          shndx: 0 0x2f6-0x2f7.7 (2)
0x02f0|                        00 00 00 00 00 00 00 00|        ........|          value: 0 0x2f8-0x2ff.7 (8)
0x0300|00 00 00 00 00 00 00 00                        |........        |          size: 0 0x300-0x307.7 (8)
      |                                               |                |        [8]{}: symbol 0x308-0x31f.7 (24)
0x0300|                        85 00 00 00            |        ....    |          name: "libbbb_bbb" (133) 0x308-0x30b.7 (4)
0x0300|                                    12         |            .   |          bind: "global" (1) 0x30c-0x30c.3 (0.4)
0x0300|                                    12         |            .   |          type: "func" (2) 0x30c.4-0x30c.7 (0.4)
0x0300|                                       00      |             .  |          other_unused: 0 0x30d-0x30d.5 (0.6)
0x0300|                                       00      |             .  |          visibility: "default" (0) 0x30d.6-0x30d.7 (0.2)
0x0300|                                          00 00|              ..|          shndx: 0 0x30e-0x30f.7 (2)
0x0310|00 00 00 00 00 00 00 00                        |........        |          value: 0 0x310-0x317.7 (8)
0x0310|                        00 00 00 00 00 00 00 00|        ........|          size: 0 0x318-0x31f.7 (8)
      |                                               |                |        [9]{}: symbol 0x320-0x337.7 (24)
0x0320|90 00 00 00                                    |....            |          name: "__libc_start_main" (144) 0x320-0x323.7 (4)
0x0320|            12                                 |    .           |          bind: "global" (1) 0x324-0x324.3 (0.4)
0x0320|            12                                 |    .           |          type: "func" (2) 0x324.4-0x324.7 (0.4)
0x0320|               00                              |     .          |          other_unused: 0 0x325-0x325.5 (0.6)
0x0320|               00                              |     .          |          visibility: "default" (0) 0x325.6-0x325.7 (0.2)
0x0320|                  00 00                        |      ..        |          shndx: 0 0x326-0x327.7 (2)
0x0320|                        00 00 00 00 00 00 00 00|        ........|          value: 0 0x328-0x32f.7 (8)
0x0330|00 00 00 00 00 00 00 00                        |........        |          size: 0 0x330-0x337.7 (8)
      |                                               |                |        [10]{}: symbol 0x338-0x34f.7 (24)
0x0330|                        63 00 00 00            |        c...    |          name: "__register_frame_info" (99) 0x338-0x33b.7 (4)
0x0330|                                    20         |                |          bind: "weak" (2) 0x33c-0x33c.3 (0.4)
0x0330|                                    20         |                |          type: "notype" (0) 0x33c.4-0x33c.7 (0.4)
0x0330|                                       00      |             .  |          other_unused: 0 0x33d-0x33d.5 (0.6)
0x0330|                                       00      |             .  |          visibility: "default" (0) 0x33d.6-0x33d.7 (0.2)
0x0330|                                          00 00|              ..|          shndx: 0 0x33e-0x33f.7 (2)
0x0340|00 00 00 00 00 00 00 00                        |........        |          value: 0 0x340-0x347.7 (8)
0x0340|                        00 00 00 00 00 00 00 00|        ........|          size: 0 0x348-0x34f.7 (8)
      |                                               |                |        [11]{}: symbol 0x350-0x367.7 (24)
0x0350|79 00 00 00                                    |y...            |          name: "_init" (121) 0x350-0x353.7 (4)
0x0350|            12                                 |    .           |          bind: "global" (1) 0x354-0x354.3 (0.4)
0x0350|            12                                 |    .           |          type: "func" (2) 0x354.4-0x354.7 (0.4)
0x0350|               00                              |     .          |          other_unused: 0 0x355-0x355.5 (0.6)
0x0350|               00                              |     .          |          visibility: "default" (0) 0x355.6-0x355.7 (0.2)
0x0350|                  07 00                        |      ..        |          shndx: 7 0x356-0x357.7 (2)
0x0350|                        e0 05 00 00 00 00 00 00|        ........|          value: 1504 0x358-0x35f.7 (8)
0x0360|04 00 00 00 00 00 00 00                        |........        |          size: 4 0x360-0x367.7 (8)
      |                                               |                |        [12]{}: symbol 0x368-0x37f.7 (24)
0x0360|                        7f 00 00 00            |        ....    |          name: "_fini" (127) 0x368-0x36b.7 (4)
0x0360|                                    12         |            .   |          bind: "global" (1) 0x36c-0x36c.3 (0.4)
0x0360|                                    12         |            .   |          type: "func" (2) 0x36c.4-0x36c.7 (0.4)
0x0360|                                       00      |             .  |          other_unused: 0 0x36d-0x36d.5 (0.6)
0x0360|                                       00      |             .  |          visibility: "default" (0) 0x36d.6-0x36d.7 (0.2)
0x0360|                                          0a 00|              ..|          shndx: 10 0x36e-0x36f.7 (2)
0x0370|00 08 00 00 00 00 00 00                        |........        |          value: 2048 0x370-0x377.7 (8)
0x0370|                        04 00 00 00 00 00 00 00|        ........|          size: 4 0x378-0x37f.7 (8)
0x11d0|                        1d 00 00 00            |        ....    |      name: ".dynsym" (29) 0x11d8-0x11db.7 (4)
0x11d0|                                    0b 00 00 00|            ....|      type: "dynsym" (0xb) (Dynamic linking symbol table) 0x11dc-0x11df.7 (4)
      |                                               |                |      flags{}: 0x11e0-0x11e7.7 (8)
0x11e0|02                                             |.               |        link_order: false 0x11e0-0x11e0 (0.1)
0x11e0|02                                             |.               |        info_link: false 0x11e0.1-0x11e0.1 (0.1)
0x11e0|02                                             |.               |        strings: false 0x11e0.2-0x11e0.2 (0.1)
0x11e0|02                                             |.               |        merge: false 0x11e0.3-0x11e0.3 (0.1)
0x11e0|02                                             |.               |        unused0: 0 0x11e0.4-0x11e0.4 (0.1)
0x11e0|02                                             |.               |        execinstr: false 0x11e0.5-0x11e0.5 (0.1)
0x11e0|02                                             |.               |        alloc: true 0x11e0.6-0x11e0.6 (0.1)
0x11e0|02                                             |.               |        write: false 0x11e0.7-0x11e0.7 (0.1)
0x11e0|   00                                          | .              |        tls: false 0x11e1-0x11e1 (0.1)
0x11e0|   00                                          | .              |        group: false 0x11e1.1-0x11e1.1 (0.1)
0x11e0|   00                                          | .              |        os_nonconforming: false 0x11e1.2-0x11e1.2 (0.1)
0x11e0|   00 00                                       | ..             |        unused1: 0 0x11e1.3-0x11e2.3 (1.1)
0x11e0|      00 00                                    |  ..            |        os_specific: 0 0x11e2.4-0x11e3.3 (1)
0x11e0|         00                                    |   .            |        processor_specific: 0 0x11e3.4-0x11e3.7 (0.4)
0x11e0|            00 00 00 00                        |    ....        |        unused2: 0 0x11e4-0x11e7.7 (4)
0x11e0|                        48 02 00 00 00 00 00 00|        H.......|      addr: 0x248 0x11e8-0x11ef.7 (8)
0x11f0|48 02 00 00 00 00 00 00                        |H.......        |      offset: 0x248 0x11f0-0x11f7.7 (8)
0x11f0|                        38 01 00 00 00 00 00 00|        8.......|      size: 312 0x11f8-0x11ff.7 (8)
0x1200|04 00 00 00                                    |....            |      link: 4 0x1200-0x1203.7 (4)
0x1200|            03 00 00 00                        |    ....        |      info: 3 0x1204-0x1207.7 (4)
0x1200|                        08 00 00 00 00 00 00 00|        ........|      addralign: 8 0x1208-0x120f.7 (8)
0x1210|18 00 00 00 00 00 00 00                        |........        |      entsize: 24 0x1210-0x1217.7 (8)
      |                                               |                |    [4]{}: section_header 0x380-0x1257.7 (3800)
0x0380|00 70 75 74 73 00 5f 5f 63 78 61 5f 66 69 6e 61|.puts.__cxa_fina|      string: "\x00puts\x00__cxa_finalize\x00__deregister_frame_info\x00_ITM_"... 0x380-0x442.7 (195)
*     |until 0x442.7 (195)                            |                |
0x1210|                        25 00 00 00            |        %...    |      name: ".dynstr" (37) 0x1218-0x121b.7 (4)
0x1210|                                    03 00 00 00|            ....|      type: "strtab" (0x3) (String table) 0x121c-0x121f.7 (4)
      |                                               |                |      flags{}: 0x1220-0x1227.7 (8)
0x1220|02                                             |.               |        link_order: false 0x1220-0x1220 (0.1)
0x1220|02                                             |.               |        info_link: false 0x1220.1-0x1220.1 (0.1)
0x1220|02                                             |.               |        strings: false 0x1220.2-0x1220.2 (0.1)
0x1220|02                                             |.               |        merge: false 0x1220.3-0x1220.3 (0.1)
0x1220|02                                             |.               |        unused0: 0 0x1220.4-0x1220.4 (0.1)
0x1220|02                                             |.               |        execinstr: false 0x1220.5-0x1220.5 (0.1)
0x1220|02                                             |.               |        alloc: true 0x1220.6-0x1220.6 (0.1)
0x1220|02                                             |.               |        write: false 0x1220.7-0x1220.7 (0.1)
0x1220|   00                                          | .              |        tls: false 0x1221-0x1221 (0.1)
0x1220|   00                                          | .              |        group: false 0x1221.1-0x1221.1 (0.1)
0x1220|   00                                          | .              |        os_nonconforming: false 0x1221.2-0x1221.2 (0.1)
0x1220|   00 00                                       | ..             |        unused1: 0 0x1221.3-0x1222.3 (1.1)
0x1220|      00 00                                    |  ..            |        os_specific: 0 0x1222.4-0x1223.3 (1)
0x1220|         00                                    |   .            |        processor_specific: 0 0x1223.4-0x1223.7 (0.4)
0x1220|            00 00 00 00                        |    ....        |        unused2: 0 0x1224-0x1227.7 (4)
0x1220|                        80 03 00 00 00 00 00 00|        ........|      addr: 0x380 0x1228-0x122f.7 (8)
0x1230|80 03 00 00 00 00 00 00                        |........        |      offset: 0x380 0x1230-0x1237.7 (8)
0x1230|                        c3 00 00 00 00 00 00 00|        ........|      size: 195 0x1238-0x123f.7 (8)
0x1240|00 00 00 00                                    |....            |      link: 0 0x1240-0x1243.7 (4)
0x1240|            00 00 00 00                        |    ....        |      info: 0 0x1244-0x1247.7 (4)
0x1240|                        01 00 00 00 00 00 00 00|        ........|      addralign: 1 0x1248-0x124f.7 (8)
0x1250|00 00 00 00 00 00 00 00                        |........        |      entsize: 0 0x1250-0x1257.7 (8)
      |                                               |                |    [5]{}: section_header 0x448-0x1297.7 (3664)
0x0440|                        90 0d 01 00 00 00 00 00|        ........|      data: raw bits 0x448-0x54f.7 (264)
0x0450|03 04 00 00 00 00 00 00 90 07 00 00 00 00 00 00|................|
*     |until 0x54f.7 (264)                            |                |
0x1250|                        2d 00 00 00            |        -...    |      name: ".rela.dyn" (45) 0x1258-0x125b.7 (4)
0x1250|                                    04 00 00 00|            ....|      type: "rela" (0x4) (Relocation entries with explicit addends) 0x125c-0x125f.7 (4)
      |                                               |                |      flags{}: 0x1260-0x1267.7 (8)
0x1260|02                                             |.               |        link_order: false 0x1260-0x1260 (0.1)
0x1260|02                                             |.               |        info_link: false 0x1260.1-0x1260.1 (0.1)
0x1260|02                                             |.               |        strings: false 0x1260.2-0x1260.2 (0.1)
0x1260|02                                             |.               |        merge: false 0x1260.3-0x1260.3 (0.1)
0x1260|02                                             |.               |        unused0: 0 0x1260.4-0x1260.4 (0.1)
0x1260|02                                             |.               |        execinstr: false 0x1260.5-0x1260.5 (0.1)
0x1260|02                                             |.               |        alloc: true 0x1260.6-0x1260.6 (0.1)
0x1260|02                                             |.               |        write: false 0x1260.7-0x1260.7 (0.1)
0x1260|   00                                          | .              |        tls: false 0x1261-0x1261 (0.1)
0x1260|   00                                          | .              |        group: false 0x1261.1-0x1261.1 (0.1)
0x1260|   00                                          | .              |        os_nonconforming: false 0x1261.2-0x1261.2 (0.1)
0x1260|   00 00                                       | ..             |        unused1: 0 0x1261.3-0x1262.3 (1.1)
0x1260|      00 00                                    |  ..            |        os_specific: 0 0x1262.4-0x1263.3 (1)
0x1260|         00                                    |   .            |        processor_specific: 0 0x1263.4-0x1263.7 (0.4)
0x1260|            00 00 00 00                        |    ....        |        unused2: 0 0x1264-0x1267.7 (4)
0x1260|                        48 04 00 00 00 00 00 00|        H.......|      addr: 0x448 0x1268-0x126f.7 (8)
0x1270|48 04 00 00 00 00 00 00                        |H.......        |      offset: 0x448 0x1270-0x1277.7 (8)
0x1270|                        08 01 00 00 00 00 00 00|        ........|      size: 264 0x1278-0x127f.7 (8)
0x1280|03 00 00 00                                    |....            |      link: 3 0x1280-0x1283.7 (4)
0x1280|            00 00 00 00                        |    ....        |      info: 0 0x1284-0x1287.7 (4)
0x1280|                        08 00 00 00 00 00 00 00|        ........|      addralign: 8 0x1288-0x128f.7 (8)
0x1290|18 00 00 00 00 00 00 00                        |........        |      entsize: 24 0x1290-0x1297.7 (8)
      |                                               |                |    [6]{}: section_header 0x550-0x12d7.7 (3464)
0x0550|88 0f 01 00 00 00 00 00 02 04 00 00 03 00 00 00|................|      data: raw bits 0x550-0x5df.7 (144)
*     |until 0x5df.7 (144)                            |                |
0x1290|                        37 00 00 00            |        7...    |      name: ".rela.plt" (55) 0x1298-0x129b.7 (4)
0x1290|                                    04 00 00 00|            ....|      type: "rela" (0x4) (Relocation entries with explicit addends) 0x129c-0x129f.7 (4)
      |                                               |                |      flags{}: 0x12a0-0x12a7.7 (8)
0x12a0|42                                             |B               |        link_order: false 0x12a0-0x12a0 (0.1)
0x12a0|42                                             |B               |        info_link: true 0x12a0.1-0x12a0.1 (0.1)
0x12a0|42                                             |B               |        strings: false 0x12a0.2-0x12a0.2 (0.1)
0x12a0|42                                             |B               |        merge: false 0x12a0.3-0x12a0.3 (0.1)
0x12a0|42                                             |B               |        unused0: 0 0x12a0.4-0x12a0.4 (0.1)
0x12a0|42                                             |B               |        execinstr: false 0x12a0.5-0x12a0.5 (0.1)
0x12a0|42                                             |B               |        alloc: true 0x12a0.6-0x12a0.6 (0.1)
0x12a0|42                                             |B               |        write: false 0x12a0.7-0x12a0.7 (0.1)
0x12a0|   00                                          | .              |        tls: false 0x12a1-0x12a1 (0.1)
0x12a0|   00                                          | .              |        group: false 0x12a1.1-0x12a1.1 (0.1)
0x12a0|   00                                          | .              |        os_nonconforming: false 0x12a1.2-0x12a1.2 (0.1)
0x12a0|   00 00                                       | ..             |        unused1: 0 0x12a1.3-0x12a2.3 (1.1)
0x12a0|      00 00                                    |  ..            |        os_specific: 0 0x12a2.4-0x12a3.3 (1)
0x12a0|         00                                    |   .            |        processor_specific: 0 0x12a3.4-0x12a3.7 (0.4)
0x12a0|            00 00 00 00                        |    ....        |        unused2: 0 0x12a4-0x12a7.7 (4)
0x12a0|                        50 05 00 00 00 00 00 00|        P.......|      addr: 0x550 0x12a8-0x12af.7 (8)
0x12b0|50 05 00 00 00 00 00 00                        |P.......        |      offset: 0x550 0x12b0-0x12b7.7 (8)
0x12b0|                        90 00 00 00 00 00 00 00|        ........|      size: 144 0x12b8-0x12bf.7 (8)
0x12c0|03 00 00 00                                    |....            |      link: 3 0x12c0-0x12c3.7 (4)
0x12c0|            11 00 00 00                        |    ....        |      info: 17 0x12c4-0x12c7.7 (4)
0x12c0|                        08 00 00 00 00 00 00 00|        ........|      addralign: 8 0x12c8-0x12cf.7 (8)
0x12d0|18 00 00 00 00 00 00 00                        |........        |      entsize: 24 0x12d0-0x12d7.7 (8)
      |                                               |                |    [7]{}: section_header 0x5e0-0x1317.7 (3384)
      |                                               |                |      code[0:4]: 0x5e0-0x5ef.7 (16)
      |                                               |                |        [0]{}: instruction 0x5e0-0x5e3.7 (4)
0x05e0|fd 7b bf a9                                    |.{..            |          opcode: "STP.W (R29, R30), -16(RSP)" (raw bits) 0x5e0-0x5e3.7 (4)
      |                                               |                |          op: "stp" (0xa9bf7bfd) 0x5e4-NA (0)
      |                                               |                |        [1]{}: instruction 0x5e4-0x5e7.7 (4)
0x05e0|            fd 03 00 91                        |    ....        |          opcode: "MOVD RSP, R29" (raw bits) 0x5e4-0x5e7.7 (4)
      |                                               |                |          op: "mov" (0x910003fd) 0x5e8-NA (0)
      |                                               |                |        [2]{}: instruction 0x5e8-0x5eb.7 (4)
0x05e0|                        fd 7b c1 a8            |        .{..    |          opcode: "LDP.P 16(RSP), (R29, R30)" (raw bits) 0x5e8-0x5eb.7 (4)
      |                                               |                |          op: "ldp" (0xa8c17bfd) 0x5ec-NA (0)
      |                                               |                |        [3]{}: instruction 0x5ec-0x5ef.7 (4)
0x05e0|                                    c0 03 5f d6|            .._.|          opcode: "RET" (raw bits) 0x5ec-0x5ef.7 (4)
      |                                               |                |          op: "ret" (0xd65f03c0) 0x5f0-NA (0)
0x12d0|                        41 00 00 00            |        A...    |      name: ".init" (65) 0x12d8-0x12db.7 (4)
0x12d0|                                    01 00 00 00|            ....|      type: "progbits" (0x1) (Information defined by the program) 0x12dc-0x12df.7 (4)
      |                                               |                |      flags{}: 0x12e0-0x12e7.7 (8)
0x12e0|06                                             |.               |        link_order: false 0x12e0-0x12e0 (0.1)
0x12e0|06                                             |.               |        info_link: false 0x12e0.1-0x12e0.1 (0.1)
0x12e0|06                                             |.               |        strings: false 0x12e0.2-0x12e0.2 (0.1)
0x12e0|06                                             |.               |        merge: false 0x12e0.3-0x12e0.3 (0.1)
0x12e0|06                                             |.               |        unused0: 0 0x12e0.4-0x12e0.4 (0.1)
0x12e0|06                                             |.               |        execinstr: true 0x12e0.5-0x12e0.5 (0.1)
0x12e0|06                                             |.               |        alloc: true 0x12e0.6-0x12e0.6 (0.1)
0x12e0|06                                             |.               |        write: false 0x12e0.7-0x12e0.7 (0.1)
0x12e0|   00                                          | .              |        tls: false 0x12e1-0x12e1 (0.1)
0x12e0|   00                                          | .              |        group: false 0x12e1.1-0x12e1.1 (0.1)
0x12e0|   00                                          | .              |        os_nonconforming: false 0x12e1.2-0x12e1.2 (0.1)
0x12e0|   00 00                                       | ..             |        unused1: 0 0x12e1.3-0x12e2.3 (1.1)
0x12e0|      00 00                                    |  ..            |        os_specific: 0 0x12e2.4-0x12e3.3 (1)
0x12e0|         00                                    |   .            |        processor_specific: 0 0x12e3.4-0x12e3.7 (0.4)
0x12e0|            00 00 00 00                        |    ....        |        unused2: 0 0x12e4-0x12e7.7 (4)
0x12e0|                        e0 05 00 00 00 00 00 00|        ........|      addr: 0x5e0 0x12e8-0x12ef.7 (8)
0x12f0|e0 05 00 00 00 00 00 00                        |........        |      offset: 0x5e0 0x12f0-0x12f7.7 (8)
0x12f0|                        10 00 00 00 00 00 00 00|        ........|      size: 16 0x12f8-0x12ff.7 (8)
0x1300|00 00 00 00                                    |....            |      link: 0 0x1300-0x1303.7 (4)
0x1300|            00 00 00 00                        |    ....        |      info: 0 0x1304-0x1307.7 (4)
0x1300|                        04 00 00 00 00 00 00 00|        ........|      addralign: 4 0x1308-0x130f.7 (8)
0x1310|00 00 00 00 00 00 00 00                        |........        |      entsize: 0 0x1310-0x1317.7 (8)
      |                                               |                |    [8]{}: section_header 0x5f0-0x1357.7 (3432)
      |                                               |                |      code[0:32]: 0x5f0-0x66f.7 (128)
      |                                               |                |        [0]{}: instruction 0x5f0-0x5f3.7 (4)
0x05f0|f0 7b bf a9                                    |.{..            |          opcode: "STP.W (R16, R30), -16(RSP)" (raw bits) 0x5f0-0x5f3.7 (4)
      |                                               |                |          op: "stp" (0xa9bf7bf0) 0x5f4-NA (0)
      |                                               |                |        [1]{}: instruction 0x5f4-0x5f7.7 (4)
0x05f0|            90 00 00 90                        |    ....        |          opcode: "ADRP 65536(PC), R16" (raw bits) 0x5f4-0x5f7.7 (4)
      |                                               |                |          op: "adrp" (0x90000090) 0x5f8-NA (0)
      |                                               |                |        [2]{}: instruction 0x5f8-0x5fb.7 (4)
0x05f0|                        11 c2 47 f9            |        ..G.    |          opcode: "MOVD 3968(R16), R17" (raw bits) 0x5f8-0x5fb.7 (4)
      |                                               |                |          op: "ldr" (0xf947c211) 0x5fc-NA (0)
      |                                               |                |        [3]{}: instruction 0x5fc-0x5ff.7 (4)
0x05f0|                                    10 02 3e 91|            ..>.|          opcode: "ADD $3968, R16, R16" (raw bits) 0x5fc-0x5ff.7 (4)
      |                                               |                |          op: "add" (0x913e0210) 0x600-NA (0)
      |                                               |                |        [4]{}: instruction 0x600-0x603.7 (4)
0x0600|20 02 1f d6                                    | ...            |          opcode: "JMP (R17)" (raw bits) 0x600-0x603.7 (4)
      |                                               |                |          op: "br" (0xd61f0220) 0x604-NA (0)
      |                                               |                |        [5]{}: instruction 0x604-0x607.7 (4)
0x0600|            1f 20 03 d5                        |    . ..        |          opcode: "NOOP" (raw bits) 0x604-0x607.7 (4)
      |                                               |                |          op: "nop" (0xd503201f) 0x608-NA (0)
      |                                               |                |        [6]{}: instruction 0x608-0x60b.7 (4)
0x0600|                        1f 20 03 d5            |        . ..    |          opcode: "NOOP" (raw bits) 0x608-0x60b.7 (4)
      |                                               |                |          op: "nop" (0xd503201f) 0x60c-NA (0)
      |                                               |                |        [7]{}: instruction 0x60c-0x60f.7 (4)
0x0600|                                    1f 20 03 d5|            . ..|          opcode: "NOOP" (raw bits) 0x60c-0x60f.7 (4)
      |                                               |                |          op: "nop" (0xd503201f) 0x610-NA (0)
      |                                               |                |        [8]{}: instruction 0x610-0x613.7 (4)
0x0610|90 00 00 90                                    |....            |          opcode: "ADRP 65536(PC), R16" (raw bits) 0x610-0x613.7 (4)
      |                                               |                |          op: "adrp" (0x90000090) 0x614-NA (0)
      |                                               |                |        [9]{}: instruction 0x614-0x617.7 (4)
0x0610|            11 c6 47 f9                        |    ..G.        |          opcode: "MOVD 3976(R16), R17" (raw bits) 0x614-0x617.7 (4)
      |                                               |                |          op: "ldr" (0xf947c611) 0x618-NA (0)
      |                                               |                |        [10]{}: instruction 0x618-0x61b.7 (4)
0x0610|                        10 22 3e 91            |        .">.    |          opcode: "ADD $3976, R16, R16" (raw bits) 0x618-0x61b.7 (4)
      |                                               |                |          op: "add" (0x913e2210) 0x61c-NA (0)
      |                                               |                |        [11]{}: instruction 0x61c-0x61f.7 (4)
0x0610|                                    20 02 1f d6|             ...|          opcode: "JMP (R17)" (raw bits) 0x61c-0x61f.7 (4)
      |                                               |                |          op: "br" (0xd61f0220) 0x620-NA (0)
      |                                               |                |        [12]{}: instruction 0x620-0x623.7 (4)
0x0620|90 00 00 90                                    |....            |          opcode: "ADRP 65536(PC), R16" (raw bits) 0x620-0x623.7 (4)
      |                                               |                |          op: "adrp" (0x90000090) 0x624-NA (0)
      |                                               |                |        [13]{}: instruction 0x624-0x627.7 (4)
0x0620|            11 ca 47 f9                        |    ..G.        |          opcode: "MOVD 3984(R16), R17" (raw bits) 0x624-0x627.7 (4)
      |                                               |                |          op: "ldr" (0xf947ca11) 0x628-NA (0)
      |                                               |                |        [14]{}: instruction 0x628-0x62b.7 (4)
0x0620|                        10 42 3e 91            |        .B>.    |          opcode: "ADD $3984, R16, R16" (raw bits) 0x628-0x62b.7 (4)
      |                                               |                |          op: "add" (0x913e4210) 0x62c-NA (0)
      |                                               |                |        [15]{}: instruction 0x62c-0x62f.7 (4)
0x0620|                                    20 02 1f d6|             ...|          opcode: "JMP (R17)" (raw bits) 0x62c-0x62f.7 (4)
      |                                               |                |          op: "br" (0xd61f0220) 0x630-NA (0)
      |                                               |                |        [16]{}: instruction 0x630-0x633.7 (4)
0x0630|90 00 00 90                                    |....            |          opcode: "ADRP 65536(PC), R16" (raw bits) 0x630-0x633.7 (4)
      |                                               |                |          op: "adrp" (0x90000090) 0x634-NA (0)
      |                                               |                |        [17]{}: instruction 0x634-0x637.7 (4)
0x0630|            11 ce 47 f9                        |    ..G.        |          opcode: "MOVD 3992(R16), R17" (raw bits) 0x634-0x637.7 (4)
      |                                               |                |          op: "ldr" (0xf947ce11) 0x638-NA (0)
      |                                               |                |        [18]{}: instruction 0x638-0x63b.7 (4)
0x0630|                        10 62 3e 91            |        .b>.    |          opcode: "ADD $3992, R16, R16" (raw bits) 0x638-0x63b.7 (4)
      |                                               |                |          op: "add" (0x913e6210) 0x63c-NA (0)
      |                                               |                |        [19]{}: instruction 0x63c-0x63f.7 (4)
0x0630|                                    20 02 1f d6|             ...|          opcode: "JMP (R17)" (raw bits) 0x63c-0x63f.7 (4)
      |                                               |                |          op: "br" (0xd61f0220) 0x640-NA (0)
      |                                               |                |        [20]{}: instruction 0x640-0x643.7 (4)
0x0640|90 00 00 90                                    |....            |          opcode: "ADRP 65536(PC), R16" (raw bits) 0x640-0x643.7 (4)
      |                                               |                |          op: "adrp" (0x90000090) 0x644-NA (0)
      |                                               |                |        [21]{}: instruction 0x644-0x647.7 (4)
0x0640|            11 d2 47 f9                        |    ..G.        |          opcode: "MOVD 4000(R16), R17" (raw bits) 0x644-0x647.7 (4)
      |                                               |                |          op: "ldr" (0xf947d211) 0x648-NA (0)
      |                                               |                |        [22]{}: instruction 0x648-0x64b.7 (4)
0x0640|                        10 82 3e 91            |        ..>.    |          opcode: "ADD $4000, R16, R16" (raw bits) 0x648-0x64b.7 (4)
      |                                               |                |          op: "add" (0x913e8210) 0x64c-NA (0)
      |                                               |                |        [23]{}: instruction 0x64c-0x64f.7 (4)
0x0640|                                    20 02 1f d6|             ...|          opcode: "JMP (R17)" (raw bits) 0x64c-0x64f.7 (4)
      |                                               |                |          op: "br" (0xd61f0220) 0x650-NA (0)
      |                                               |                |        [24]{}: instruction 0x650-0x653.7 (4)
0x0650|90 00 00 90                                    |....            |          opcode: "ADRP 65536(PC), R16" (raw bits) 0x650-0x653.7 (4)
      |                                               |                |          op: "adrp" (0x90000090) 0x654-NA (0)
      |                                               |                |        [25]{}: instruction 0x654-0x657.7 (4)
0x0650|            11 d6 47 f9                        |    ..G.        |          opcode: "MOVD 4008(R16), R17" (raw bits) 0x654-0x657.7 (4)
      |                                               |                |          op: "ldr" (0xf947d611) 0x658-NA (0)
      |                                               |                |        [26]{}: instruction 0x658-0x65b.7 (4)
0x0650|                        10 a2 3e 91            |        ..>.    |          opcode: "ADD $4008, R16, R16" (raw bits) 0x658-0x65b.7 (4)
      |                                               |                |          op: "add" (0x913ea210) 0x65c-NA (0)
      |                                               |                |        [27]{}: instruction 0x65c-0x65f.7 (4)
0x0650|                                    20 02 1f d6|             ...|          opcode: "JMP (R17)" (raw bits) 0x65c-0x65f.7 (4)
      |                                               |                |          op: "br" (0xd61f0220) 0x660-NA (0)
      |                                               |                |        [28]{}: instruction 0x660-0x663.7 (4)
0x0660|90 00 00 90                                    |....            |          opcode: "ADRP 65536(PC), R16" (raw bits) 0x660-0x663.7 (4)
      |                                               |                |          op: "adrp" (0x90000090) 0x664-NA (0)
      |                                               |                |        [29]{}: instruction 0x664-0x667.7 (4)
0x0660|            11 da 47 f9                        |    ..G.        |          opcode: "MOVD 4016(R16), R17" (raw bits) 0x664-0x667.7 (4)
      |                                               |                |          op: "ldr" (0xf947da11) 0x668-NA (0)
      |                                               |                |        [30]{}: instruction 0x668-0x66b.7 (4)
0x0660|                        10 c2 3e 91            |        ..>.    |          opcode: "ADD $4016, R16, R16" (raw bits) 0x668-0x66b.7 (4)
      |                                               |                |          op: "add" (0x913ec210) 0x66c-NA (0)
      |                                               |                |        [31]{}: instruction 0x66c-0x66f.7 (4)
0x0660|                                    20 02 1f d6|             ...|          opcode: "JMP (R17)" (raw bits) 0x66c-0x66f.7 (4)
      |                                               |                |          op: "br" (0xd61f0220) 0x670-NA (0)
0x1310|                        3c 00 00 00            |        <...    |      name: ".plt" (60) 0x1318-0x131b.7 (4)
0x1310|                                    01 00 00 00|            ....|      type: "progbits" (0x1) (Information defined by the program) 0x131c-0x131f.7 (4)
      |                                               |                |      flags{}: 0x1320-0x1327.7 (8)
0x1320|06                                             |.               |        link_order: false 0x1320-0x1320 (0.1)
0x1320|06                                             |.               |        info_link: false 0x1320.1-0x1320.1 (0.1)
0x1320|06                                             |.               |        strings: false 0x1320.2-0x1320.2 (0.1)
0x1320|06                                             |.               |        merge: false 0x1320.3-0x1320.3 (0.1)
0x1320|06                                             |.               |        unused0: 0 0x1320.4-0x1320.4 (0.1)
0x1320|06                                             |.               |        execinstr: true 0x1320.5-0x1320.5 (0.1)
0x1320|06                                             |.               |        alloc: true 0x1320.6-0x1320.6 (0.1)
0x1320|06                                             |.               |        write: false 0x1320.7-0x1320.7 (0.1)
0x1320|   00                                          | .              |        tls: false 0x1321-0x1321 (0.1)
0x1320|   00                                          | .              |        group: false 0x1321.1-0x1321.1 (0.1)
0x1320|   00                                          | .              |        os_nonconforming: false 0x1321.2-0x1321.2 (0.1)
0x1320|   00 00                                       | ..             |        unused1: 0 0x1321.3-0x1322.3 (1.1)
0x1320|      00 00                                    |  ..            |        os_specific: 0 0x1322.4-0x1323.3 (1)
0x1320|         00                                    |   .            |        processor_specific: 0 0x1323.4-0x1323.7 (0.4)
0x1320|            00 00 00 00                        |    ....        |        unused2: 0 0x1324-0x1327.7 (4)
0x1320|                        f0 05 00 00 00 00 00 00|        ........|      addr: 0x5f0 0x1328-0x132f.7 (8)
0x1330|f0 05 00 00 00 00 00 00                        |........        |      offset: 0x5f0 0x1330-0x1337.7 (8)
0x1330|                        80 00 00 00 00 00 00 00|        ........|      size: 128 0x1338-0x133f.7 (8)
0x1340|00 00 00 00                                    |....            |      link: 0 0x1340-0x1343.7 (4)
0x1340|            00 00 00 00                        |    ....        |      info: 0 0x1344-0x1347.7 (4)
0x1340|                        10 00 00 00 00 00 00 00|        ........|      addralign: 16 0x1348-0x134f.7 (8)
0x1350|00 00 00 00 00 00 00 00                        |........        |      entsize: 0 0x1350-0x1357.7 (8)
      |                                               |                |    [9]{}: section_header 0x670-0x1397.7 (3368)
      |                                               |                |      code[0:100]: 0x670-0x7ff.7 (400)
      |                                               |                |        [0]{}: instruction 0x670-0x673.7 (4)
0x0670|1d 00 80 d2                                    |....            |          opcode: "MOVD $0, R29" (raw bits) 0x670-0x673.7 (4)
      |                                               |                |          op: "mov" (0xd280001d) 0x674-NA (0)
      |                                               |                |        [1]{}: instruction 0x674-0x677.7 (4)
0x0670|            1e 00 80 d2                        |    ....        |          opcode: "MOVD $0, R30" (raw bits) 0x674-0x677.7 (4)
      |                                               |                |          op: "mov" (0xd280001e) 0x678-NA (0)
      |                                               |                |        [2]{}: instruction 0x678-0x67b.7 (4)
0x0670|                        e0 03 00 91            |        ....    |          opcode: "MOVD RSP, R0" (raw bits) 0x678-0x67b.7 (4)
      |                                               |                |          op: "mov" (0x910003e0) 0x67c-NA (0)
      |                                               |                |        [3]{}: instruction 0x67c-0x67f.7 (4)
0x0670|                                    81 00 00 90|            ....|          opcode: "ADRP 65536(PC), R1" (raw bits) 0x67c-0x67f.7 (4)
      |                                               |                |          op: "adrp" (0x90000081) 0x680-NA (0)
      |                                               |                |        [4]{}: instruction 0x680-0x683.7 (4)
0x0680|21 80 36 91                                    |!.6.            |          opcode: "ADD $3488, R1, R1" (raw bits) 0x680-0x683.7 (4)
      |                                               |                |          op: "add" (0x91368021) 0x684-NA (0)
      |                                               |                |        [5]{}: instruction 0x684-0x687.7 (4)
0x0680|            1f ec 7c 92                        |    ..|.        |          opcode: "AND $-16, R0, RSP" (raw bits) 0x684-0x687.7 (4)
      |                                               |                |          op: "and" (0x927cec1f) 0x688-NA (0)
      |                                               |                |        [6]{}: instruction 0x688-0x68b.7 (4)
0x0680|                        01 00 00 14            |        ....    |          opcode: "JMP 1(PC)" (raw bits) 0x688-0x68b.7 (4)
      |                                               |                |          op: "b" (0x14000001) 0x68c-NA (0)
      |                                               |                |        [7]{}: instruction 0x68c-0x68f.7 (4)
0x0680|                                    e2 03 00 aa|            ....|          opcode: "MOVD R0, R2" (raw bits) 0x68c-0x68f.7 (4)
      |                                               |                |          op: "mov" (0xaa0003e2) 0x690-NA (0)
      |                                               |                |        [8]{}: instruction 0x690-0x693.7 (4)
0x0690|84 00 00 90                                    |....            |          opcode: "ADRP 65536(PC), R4" (raw bits) 0x690-0x693.7 (4)
      |                                               |                |          op: "adrp" (0x90000084) 0x694-NA (0)
      |                                               |                |        [9]{}: instruction 0x694-0x697.7 (4)
0x0690|            83 00 00 90                        |    ....        |          opcode: "ADRP 65536(PC), R3" (raw bits) 0x694-0x697.7 (4)
      |                                               |                |          op: "adrp" (0x90000083) 0x698-NA (0)
      |                                               |                |        [10]{}: instruction 0x698-0x69b.7 (4)
0x0690|                        80 00 00 90            |        ....    |          opcode: "ADRP 65536(PC), R0" (raw bits) 0x698-0x69b.7 (4)
      |                                               |                |          op: "adrp" (0x90000080) 0x69c-NA (0)
      |                                               |                |        [11]{}: instruction 0x69c-0x69f.7 (4)
0x0690|                                    84 f8 47 f9|            ..G.|          opcode: "MOVD 4080(R4), R4" (raw bits) 0x69c-0x69f.7 (4)
      |                                               |                |          op: "ldr" (0xf947f884) 0x6a0-NA (0)
      |                                               |                |        [12]{}: instruction 0x6a0-0x6a3.7 (4)
0x06a0|05 00 80 d2                                    |....            |          opcode: "MOVD $0, R5" (raw bits) 0x6a0-0x6a3.7 (4)
      |                                               |                |          op: "mov" (0xd2800005) 0x6a4-NA (0)
      |                                               |                |        [13]{}: instruction 0x6a4-0x6a7.7 (4)
0x06a0|            63 e4 47 f9                        |    c.G.        |          opcode: "MOVD 4040(R3), R3" (raw bits) 0x6a4-0x6a7.7 (4)
      |                                               |                |          op: "ldr" (0xf947e463) 0x6a8-NA (0)
      |                                               |                |        [14]{}: instruction 0x6a8-0x6ab.7 (4)
0x06a0|                        00 f4 47 f9            |        ..G.    |          opcode: "MOVD 4072(R0), R0" (raw bits) 0x6a8-0x6ab.7 (4)
      |                                               |                |          op: "ldr" (0xf947f400) 0x6ac-NA (0)
      |                                               |                |        [15]{}: instruction 0x6ac-0x6af.7 (4)
0x06a0|                                    41 84 40 f8|            A.@.|          opcode: "MOVD.P 8(R2), R1" (raw bits) 0x6ac-0x6af.7 (4)
      |                                               |                |          op: "ldr" (0xf8408441) 0x6b0-NA (0)
      |                                               |                |        [16]{}: instruction 0x6b0-0x6b3.7 (4)
0x06b0|e8 ff ff 17                                    |....            |          opcode: "JMP -24(PC)" (raw bits) 0x6b0-0x6b3.7 (4)
      |                                               |                |          op: "b" (0x17ffffe8) 0x6b4-NA (0)
      |                                               |                |        [17]{}: instruction 0x6b4-0x6b7.7 (4)
0x06b0|            1f 20 03 d5                        |    . ..        |          opcode: "NOOP" (raw bits) 0x6b4-0x6b7.7 (4)
      |                                               |                |          op: "nop" (0xd503201f) 0x6b8-NA (0)
      |                                               |                |        [18]{}: instruction 0x6b8-0x6bb.7 (4)
0x06b0|                        1f 20 03 d5            |        . ..    |          opcode: "NOOP" (raw bits) 0x6b8-0x6bb.7 (4)
      |                                               |                |          op: "nop" (0xd503201f) 0x6bc-NA (0)
      |                                               |                |        [19]{}: instruction 0x6bc-0x6bf.7 (4)
0x06b0|                                    1f 20 03 d5|            . ..|          opcode: "NOOP" (raw bits) 0x6bc-0x6bf.7 (4)
      |                                               |                |          op: "nop" (0xd503201f) 0x6c0-NA (0)
      |                                               |                |        [20]{}: instruction 0x6c0-0x6c3.7 (4)
0x06c0|80 00 00 b0                                    |....            |          opcode: "ADRP 69632(PC), R0" (raw bits) 0x6c0-0x6c3.7 (4)
      |                                               |                |          op: "adrp" (0xb0000080) 0x6c4-NA (0)
      |                                               |                |        [21]{}: instruction 0x6c4-0x6c7.7 (4)
0x06c0|            00 20 00 91                        |    . ..        |          opcode: "ADD $8, R0, R0" (raw bits) 0x6c4-0x6c7.7 (4)
      |                                               |                |          op: "add" (0x91002000) 0x6c8-NA (0)
      |                                               |                |        [22]{}: instruction 0x6c8-0x6cb.7 (4)
0x06c0|                        81 00 00 b0            |        ....    |          opcode: "ADRP 69632(PC), R1" (raw bits) 0x6c8-0x6cb.7 (4)
      |                                               |                |          op: "adrp" (0xb0000081) 0x6cc-NA (0)
      |                                               |                |        [23]{}: instruction 0x6cc-0x6cf.7 (4)
0x06c0|                                    21 20 00 91|            ! ..|          opcode: "ADD $8, R1, R1" (raw bits) 0x6cc-0x6cf.7 (4)
      |                                               |                |          op: "add" (0x91002021) 0x6d0-NA (0)
      |                                               |                |        [24]{}: instruction 0x6d0-0x6d3.7 (4)
0x06d0|3f 00 00 eb                                    |?...            |          opcode: "CMP R0, R1" (raw bits) 0x6d0-0x6d3.7 (4)
      |                                               |                |          op: "cmp" (0xeb00003f) 0x6d4-NA (0)
      |                                               |                |        [25]{}: instruction 0x6d4-0x6d7.7 (4)
0x06d0|            c0 00 00 54                        |    ...T        |          opcode: "BEQ 6(PC)" (raw bits) 0x6d4-0x6d7.7 (4)
      |                                               |                |          op: "b" (0x540000c0) 0x6d8-NA (0)
      |                                               |                |        [26]{}: instruction 0x6d8-0x6db.7 (4)
0x06d0|                        81 00 00 90            |        ....    |          opcode: "ADRP 65536(PC), R1" (raw bits) 0x6d8-0x6db.7 (4)
      |                                               |                |          op: "adrp" (0x90000081) 0x6dc-NA (0)
      |                                               |                |        [27]{}: instruction 0x6dc-0x6df.7 (4)
0x06d0|                                    21 f0 47 f9|            !.G.|          opcode: "MOVD 4064(R1), R1" (raw bits) 0x6dc-0x6df.7 (4)
      |                                               |                |          op: "ldr" (0xf947f021) 0x6e0-NA (0)
      |                                               |                |        [28]{}: instruction 0x6e0-0x6e3.7 (4)
0x06e0|61 00 00 b4                                    |a...            |          opcode: "CBZ R1, 3(PC)" (raw bits) 0x6e0-0x6e3.7 (4)
      |                                               |                |          op: "cbz" (0xb4000061) 0x6e4-NA (0)
      |                                               |                |        [29]{}: instruction 0x6e4-0x6e7.7 (4)
0x06e0|            f0 03 01 aa                        |    ....        |          opcode: "MOVD R1, R16" (raw bits) 0x6e4-0x6e7.7 (4)
      |                                               |                |          op: "mov" (0xaa0103f0) 0x6e8-NA (0)
      |                                               |                |        [30]{}: instruction 0x6e8-0x6eb.7 (4)
0x06e0|                        00 02 1f d6            |        ....    |          opcode: "JMP (R16)" (raw bits) 0x6e8-0x6eb.7 (4)
      |                                               |                |          op: "br" (0xd61f0200) 0x6ec-NA (0)
      |                                               |                |        [31]{}: instruction 0x6ec-0x6ef.7 (4)
0x06e0|                                    c0 03 5f d6|            .._.|          opcode: "RET" (raw bits) 0x6ec-0x6ef.7 (4)
      |                                               |                |          op: "ret" (0xd65f03c0) 0x6f0-NA (0)
      |                                               |                |        [32]{}: instruction 0x6f0-0x6f3.7 (4)
0x06f0|80 00 00 b0                                    |....            |          opcode: "ADRP 69632(PC), R0" (raw bits) 0x6f0-0x6f3.7 (4)
      |                                               |                |          op: "adrp" (0xb0000080) 0x6f4-NA (0)
      |                                               |                |        [33]{}: instruction 0x6f4-0x6f7.7 (4)
0x06f0|            00 20 00 91                        |    . ..        |          opcode: "ADD $8, R0, R0" (raw bits) 0x6f4-0x6f7.7 (4)
      |                                               |                |          op: "add" (0x91002000) 0x6f8-NA (0)
      |                                               |                |        [34]{}: instruction 0x6f8-0x6fb.7 (4)
0x06f0|                        81 00 00 b0            |        ....    |          opcode: "ADRP 69632(PC), R1" (raw bits) 0x6f8-0x6fb.7 (4)
      |                                               |                |          op: "adrp" (0xb0000081) 0x6fc-NA (0)
      |                                               |                |        [35]{}: instruction 0x6fc-0x6ff.7 (4)
0x06f0|                                    21 20 00 91|            ! ..|          opcode: "ADD $8, R1, R1" (raw bits) 0x6fc-0x6ff.7 (4)
      |                                               |                |          op: "add" (0x91002021) 0x700-NA (0)
      |                                               |                |        [36]{}: instruction 0x700-0x703.7 (4)
0x0700|21 00 00 cb                                    |!...            |          opcode: "SUB R0, R1, R1" (raw bits) 0x700-0x703.7 (4)
      |                                               |                |          op: "sub" (0xcb000021) 0x704-NA (0)
      |                                               |                |        [37]{}: instruction 0x704-0x707.7 (4)
0x0700|            22 fc 7f d3                        |    "...        |          opcode: "LSR $63, R1, R2" (raw bits) 0x704-0x707.7 (4)
      |                                               |                |          op: "lsr" (0xd37ffc22) 0x708-NA (0)
      |                                               |                |        [38]{}: instruction 0x708-0x70b.7 (4)
0x0700|                        41 0c 81 8b            |        A...    |          opcode: "ADD R1->3, R2, R1" (raw bits) 0x708-0x70b.7 (4)
      |                                               |                |          op: "add" (0x8b810c41) 0x70c-NA (0)
      |                                               |                |        [39]{}: instruction 0x70c-0x70f.7 (4)
0x0700|                                    21 fc 41 93|            !.A.|          opcode: "ASR $1, R1, R1" (raw bits) 0x70c-0x70f.7 (4)
      |                                               |                |          op: "asr" (0x9341fc21) 0x710-NA (0)
      |                                               |                |        [40]{}: instruction 0x710-0x713.7 (4)
0x0710|c1 00 00 b4                                    |....            |          opcode: "CBZ R1, 6(PC)" (raw bits) 0x710-0x713.7 (4)
      |                                               |                |          op: "cbz" (0xb40000c1) 0x714-NA (0)
      |                                               |                |        [41]{}: instruction 0x714-0x717.7 (4)
0x0710|            82 00 00 90                        |    ....        |          opcode: "ADRP 65536(PC), R2" (raw bits) 0x714-0x717.7 (4)
      |                                               |                |          op: "adrp" (0x90000082) 0x718-NA (0)
      |                                               |                |        [42]{}: instruction 0x718-0x71b.7 (4)
0x0710|                        42 ec 47 f9            |        B.G.    |          opcode: "MOVD 4056(R2), R2" (raw bits) 0x718-0x71b.7 (4)
      |                                               |                |          op: "ldr" (0xf947ec42) 0x71c-NA (0)
      |                                               |                |        [43]{}: instruction 0x71c-0x71f.7 (4)
0x0710|                                    62 00 00 b4|            b...|          opcode: "CBZ R2, 3(PC)" (raw bits) 0x71c-0x71f.7 (4)
      |                                               |                |          op: "cbz" (0xb4000062) 0x720-NA (0)
      |                                               |                |        [44]{}: instruction 0x720-0x723.7 (4)
0x0720|f0 03 02 aa                                    |....            |          opcode: "MOVD R2, R16" (raw bits) 0x720-0x723.7 (4)
      |                                               |                |          op: "mov" (0xaa0203f0) 0x724-NA (0)
      |                                               |                |        [45]{}: instruction 0x724-0x727.7 (4)
0x0720|            00 02 1f d6                        |    ....        |          opcode: "JMP (R16)" (raw bits) 0x724-0x727.7 (4)
      |                                               |                |          op: "br" (0xd61f0200) 0x728-NA (0)
      |                                               |                |        [46]{}: instruction 0x728-0x72b.7 (4)
0x0720|                        c0 03 5f d6            |        .._.    |          opcode: "RET" (raw bits) 0x728-0x72b.7 (4)
      |                                               |                |          op: "ret" (0xd65f03c0) 0x72c-NA (0)
      |                                               |                |        [47]{}: instruction 0x72c-0x72f.7 (4)
0x0720|                                    1f 20 03 d5|            . ..|          opcode: "NOOP" (raw bits) 0x72c-0x72f.7 (4)
      |                                               |                |          op: "nop" (0xd503201f) 0x730-NA (0)
      |                                               |                |        [48]{}: instruction 0x730-0x733.7 (4)
0x0730|fd 7b be a9                                    |.{..            |          opcode: "STP.W (R29, R30), -32(RSP)" (raw bits) 0x730-0x733.7 (4)
      |                                               |                |          op: "stp" (0xa9be7bfd) 0x734-NA (0)
      |                                               |                |        [49]{}: instruction 0x734-0x737.7 (4)
0x0730|            fd 03 00 91                        |    ....        |          opcode: "MOVD RSP, R29" (raw bits) 0x734-0x737.7 (4)
      |                                               |                |          op: "mov" (0x910003fd) 0x738-NA (0)
      |                                               |                |        [50]{}: instruction 0x738-0x73b.7 (4)
0x0730|                        f3 0b 00 f9            |        ....    |          opcode: "MOVD R19, 16(RSP)" (raw bits) 0x738-0x73b.7 (4)
      |                                               |                |          op: "str" (0xf9000bf3) 0x73c-NA (0)
      |                                               |                |        [51]{}: instruction 0x73c-0x73f.7 (4)
0x0730|                                    93 00 00 b0|            ....|          opcode: "ADRP 69632(PC), R19" (raw bits) 0x73c-0x73f.7 (4)
      |                                               |                |          op: "adrp" (0xb0000093) 0x740-NA (0)
      |                                               |                |        [52]{}: instruction 0x740-0x743.7 (4)
0x0740|60 22 40 39                                    |`"@9            |          opcode: "MOVBU 8(R19), R0" (raw bits) 0x740-0x743.7 (4)
      |                                               |                |          op: "ldrb" (0x39402260) 0x744-NA (0)
      |                                               |                |        [53]{}: instruction 0x744-0x747.7 (4)
0x0740|            00 02 00 35                        |    ...5        |          opcode: "CBNZW R0, 16(PC)" (raw bits) 0x744-0x747.7 (4)
      |                                               |                |          op: "cbnz" (0x35000200) 0x748-NA (0)
      |                                               |                |        [54]{}: instruction 0x748-0x74b.7 (4)
0x0740|                        80 00 00 90            |        ....    |          opcode: "ADRP 65536(PC), R0" (raw bits) 0x748-0x74b.7 (4)
      |                                               |                |          op: "adrp" (0x90000080) 0x74c-NA (0)
      |                                               |                |        [55]{}: instruction 0x74c-0x74f.7 (4)
0x0740|                                    00 e0 47 f9|            ..G.|          opcode: "MOVD 4032(R0), R0" (raw bits) 0x74c-0x74f.7 (4)
      |                                               |                |          op: "ldr" (0xf947e000) 0x750-NA (0)
      |                                               |                |        [56]{}: instruction 0x750-0x753.7 (4)
0x0750|80 00 00 b4                                    |....            |          opcode: "CBZ R0, 4(PC)" (raw bits) 0x750-0x753.7 (4)
      |                                               |                |          op: "cbz" (0xb4000080) 0x754-NA (0)
      |                                               |                |        [57]{}: instruction 0x754-0x757.7 (4)
0x0750|            80 00 00 b0                        |    ....        |          opcode: "ADRP 69632(PC), R0" (raw bits) 0x754-0x757.7 (4)
      |                                               |                |          op: "adrp" (0xb0000080) 0x758-NA (0)
      |                                               |                |        [58]{}: instruction 0x758-0x75b.7 (4)
0x0750|                        00 00 40 f9            |        ..@.    |          opcode: "MOVD (R0), R0" (raw bits) 0x758-0x75b.7 (4)
      |                                               |                |          op: "ldr" (0xf9400000) 0x75c-NA (0)
      |                                               |                |        [59]{}: instruction 0x75c-0x75f.7 (4)
0x0750|                                    b1 ff ff 97|            ....|          opcode: "CALL -79(PC)" (raw bits) 0x75c-0x75f.7 (4)
      |                                               |                |          op: "bl" (0x97ffffb1) 0x760-NA (0)
      |                                               |                |        [60]{}: instruction 0x760-0x763.7 (4)
0x0760|d8 ff ff 97                                    |....            |          opcode: "CALL -40(PC)" (raw bits) 0x760-0x763.7 (4)
      |                                               |                |          op: "bl" (0x97ffffd8) 0x764-NA (0)
      |                                               |                |        [61]{}: instruction 0x764-0x767.7 (4)
0x0760|            80 00 00 90                        |    ....        |          opcode: "ADRP 65536(PC), R0" (raw bits) 0x764-0x767.7 (4)
      |                                               |                |          op: "adrp" (0x90000080) 0x768-NA (0)
      |                                               |                |        [62]{}: instruction 0x768-0x76b.7 (4)
0x0760|                        00 e8 47 f9            |        ..G.    |          opcode: "MOVD 4048(R0), R0" (raw bits) 0x768-0x76b.7 (4)
      |                                               |                |          op: "ldr" (0xf947e800) 0x76c-NA (0)
      |                                               |                |        [63]{}: instruction 0x76c-0x76f.7 (4)
0x0760|                                    80 00 00 b4|            ....|          opcode: "CBZ R0, 4(PC)" (raw bits) 0x76c-0x76f.7 (4)
      |                                               |                |          op: "cbz" (0xb4000080) 0x770-NA (0)
      |                                               |                |        [64]{}: instruction 0x770-0x773.7 (4)
0x0770|00 00 00 90                                    |....            |          opcode: "ADRP 0(PC), R0" (raw bits) 0x770-0x773.7 (4)
      |                                               |                |          op: "adrp" (0x90000000) 0x774-NA (0)
      |                                               |                |        [65]{}: instruction 0x774-0x777.7 (4)
0x0770|            00 40 21 91                        |    .@!.        |          opcode: "ADD $2128, R0, R0" (raw bits) 0x774-0x777.7 (4)
      |                                               |                |          op: "add" (0x91214000) 0x778-NA (0)
      |                                               |                |        [66]{}: instruction 0x778-0x77b.7 (4)
0x0770|                        ae ff ff 97            |        ....    |          opcode: "CALL -82(PC)" (raw bits) 0x778-0x77b.7 (4)
      |                                               |                |          op: "bl" (0x97ffffae) 0x77c-NA (0)
      |                                               |                |        [67]{}: instruction 0x77c-0x77f.7 (4)
0x0770|                                    20 00 80 52|             ..R|          opcode: "MOVW $1, R0" (raw bits) 0x77c-0x77f.7 (4)
      |                                               |                |          op: "mov" (0x52800020) 0x780-NA (0)
      |                                               |                |        [68]{}: instruction 0x780-0x783.7 (4)
0x0780|60 22 00 39                                    |`".9            |          opcode: "MOVB R0, 8(R19)" (raw bits) 0x780-0x783.7 (4)
      |                                               |                |          op: "strb" (0x39002260) 0x784-NA (0)
      |                                               |                |        [69]{}: instruction 0x784-0x787.7 (4)
0x0780|            f3 0b 40 f9                        |    ..@.        |          opcode: "MOVD 16(RSP), R19" (raw bits) 0x784-0x787.7 (4)
      |                                               |                |          op: "ldr" (0xf9400bf3) 0x788-NA (0)
      |                                               |                |        [70]{}: instruction 0x788-0x78b.7 (4)
0x0780|                        fd 7b c2 a8            |        .{..    |          opcode: "LDP.P 32(RSP), (R29, R30)" (raw bits) 0x788-0x78b.7 (4)
      |                                               |                |          op: "ldp" (0xa8c27bfd) 0x78c-NA (0)
      |                                               |                |        [71]{}: instruction 0x78c-0x78f.7 (4)
0x0780|                                    c0 03 5f d6|            .._.|          opcode: "RET" (raw bits) 0x78c-0x78f.7 (4)
      |                                               |                |          op: "ret" (0xd65f03c0) 0x790-NA (0)
      |                                               |                |        [72]{}: instruction 0x790-0x793.7 (4)
0x0790|80 00 00 90                                    |....            |          opcode: "ADRP 65536(PC), R0" (raw bits) 0x790-0x793.7 (4)
      |                                               |                |          op: "adrp" (0x90000080) 0x794-NA (0)
      |                                               |                |        [73]{}: instruction 0x794-0x797.7 (4)
0x0790|            00 fc 47 f9                        |    ..G.        |          opcode: "MOVD 4088(R0), R0" (raw bits) 0x794-0x797.7 (4)
      |                                               |                |          op: "ldr" (0xf947fc00) 0x798-NA (0)
      |                                               |                |        [74]{}: instruction 0x798-0x79b.7 (4)
0x0790|                        40 01 00 b4            |        @...    |          opcode: "CBZ R0, 10(PC)" (raw bits) 0x798-0x79b.7 (4)
      |                                               |                |          op: "cbz" (0xb4000140) 0x79c-NA (0)
      |                                               |                |        [75]{}: instruction 0x79c-0x79f.7 (4)
0x0790|                                    fd 7b bf a9|            .{..|          opcode: "STP.W (R29, R30), -16(RSP)" (raw bits) 0x79c-0x79f.7 (4)
      |                                               |                |          op: "stp" (0xa9bf7bfd) 0x7a0-NA (0)
      |                                               |                |        [76]{}: instruction 0x7a0-0x7a3.7 (4)
0x07a0|81 00 00 b0                                    |....            |          opcode: "ADRP 69632(PC), R1" (raw bits) 0x7a0-0x7a3.7 (4)
      |                                               |                |          op: "adrp" (0xb0000081) 0x7a4-NA (0)
      |                                               |                |        [77]{}: instruction 0x7a4-0x7a7.7 (4)
0x07a0|            00 00 00 90                        |    ....        |          opcode: "ADRP 0(PC), R0" (raw bits) 0x7a4-0x7a7.7 (4)
      |                                               |                |          op: "adrp" (0x90000000) 0x7a8-NA (0)
      |                                               |                |        [78]{}: instruction 0x7a8-0x7ab.7 (4)
0x07a0|                        fd 03 00 91            |        ....    |          opcode: "MOVD RSP, R29" (raw bits) 0x7a8-0x7ab.7 (4)
      |                                               |                |          op: "mov" (0x910003fd) 0x7ac-NA (0)
      |                                               |                |        [79]{}: instruction 0x7ac-0x7af.7 (4)
0x07a0|                                    21 40 00 91|            !@..|          opcode: "ADD $16, R1, R1" (raw bits) 0x7ac-0x7af.7 (4)
      |                                               |                |          op: "add" (0x91004021) 0x7b0-NA (0)
      |                                               |                |        [80]{}: instruction 0x7b0-0x7b3.7 (4)
0x07b0|00 40 21 91                                    |.@!.            |          opcode: "ADD $2128, R0, R0" (raw bits) 0x7b0-0x7b3.7 (4)
      |                                               |                |          op: "add" (0x91214000) 0x7b4-NA (0)
      |                                               |                |        [81]{}: instruction 0x7b4-0x7b7.7 (4)
0x07b0|            ab ff ff 97                        |    ....        |          opcode: "CALL -85(PC)" (raw bits) 0x7b4-0x7b7.7 (4)
      |                                               |                |          op: "bl" (0x97ffffab) 0x7b8-NA (0)
      |                                               |                |        [82]{}: instruction 0x7b8-0x7bb.7 (4)
0x07b0|                        fd 7b c1 a8            |        .{..    |          opcode: "LDP.P 16(RSP), (R29, R30)" (raw bits) 0x7b8-0x7bb.7 (4)
      |                                               |                |          op: "ldp" (0xa8c17bfd) 0x7bc-NA (0)
      |                                               |                |        [83]{}: instruction 0x7bc-0x7bf.7 (4)
0x07b0|                                    cd ff ff 17|            ....|          opcode: "JMP -51(PC)" (raw bits) 0x7bc-0x7bf.7 (4)
      |                                               |                |          op: "b" (0x17ffffcd) 0x7c0-NA (0)
      |                                               |                |        [84]{}: instruction 0x7c0-0x7c3.7 (4)
0x07c0|cc ff ff 17                                    |....            |          opcode: "JMP -52(PC)" (raw bits) 0x7c0-0x7c3.7 (4)
      |                                               |                |          op: "b" (0x17ffffcc) 0x7c4-NA (0)
      |                                               |                |        [85]{}: instruction 0x7c4-0x7c7.7 (4)
0x07c0|            fd 7b bf a9                        |    .{..        |          opcode: "STP.W (R29, R30), -16(RSP)" (raw bits) 0x7c4-0x7c7.7 (4)
      |                                               |                |          op: "stp" (0xa9bf7bfd) 0x7c8-NA (0)
      |                                               |                |        [86]{}: instruction 0x7c8-0x7cb.7 (4)
0x07c0|                        fd 03 00 91            |        ....    |          opcode: "MOVD RSP, R29" (raw bits) 0x7c8-0x7cb.7 (4)
      |                                               |                |          op: "mov" (0x910003fd) 0x7cc-NA (0)
      |                                               |                |        [87]{}: instruction 0x7cc-0x7cf.7 (4)
0x07c0|                                    00 00 00 90|            ....|          opcode: "ADRP 0(PC), R0" (raw bits) 0x7cc-0x7cf.7 (4)
      |                                               |                |          op: "adrp" (0x90000000) 0x7d0-NA (0)
      |                                               |                |        [88]{}: instruction 0x7d0-0x7d3.7 (4)
0x07d0|00 40 20 91                                    |.@ .            |          opcode: "ADD $2064, R0, R0" (raw bits) 0x7d0-0x7d3.7 (4)
      |                                               |                |          op: "add" (0x91204000) 0x7d4-NA (0)
      |                                               |                |        [89]{}: instruction 0x7d4-0x7d7.7 (4)
0x07d0|            8f ff ff 97                        |    ....        |          opcode: "CALL -113(PC)" (raw bits) 0x7d4-0x7d7.7 (4)
      |                                               |                |          op: "bl" (0x97ffff8f) 0x7d8-NA (0)
      |                                               |                |        [90]{}: instruction 0x7d8-0x7db.7 (4)
0x07d0|                        1f 20 03 d5            |        . ..    |          opcode: "NOOP" (raw bits) 0x7d8-0x7db.7 (4)
      |                                               |                |          op: "nop" (0xd503201f) 0x7dc-NA (0)
      |                                               |                |        [91]{}: instruction 0x7dc-0x7df.7 (4)
0x07d0|                                    fd 7b c1 a8|            .{..|          opcode: "LDP.P 16(RSP), (R29, R30)" (raw bits) 0x7dc-0x7df.7 (4)
      |                                               |                |          op: "ldp" (0xa8c17bfd) 0x7e0-NA (0)
      |                                               |                |        [92]{}: instruction 0x7e0-0x7e3.7 (4)
0x07e0|c0 03 5f d6                                    |.._.            |          opcode: "RET" (raw bits) 0x7e0-0x7e3.7 (4)
      |                                               |                |          op: "ret" (0xd65f03c0) 0x7e4-NA (0)
      |                                               |                |        [93]{}: instruction 0x7e4-0x7e7.7 (4)
0x07e0|            fd 7b bf a9                        |    .{..        |          opcode: "STP.W (R29, R30), -16(RSP)" (raw bits) 0x7e4-0x7e7.7 (4)
      |                                               |                |          op: "stp" (0xa9bf7bfd) 0x7e8-NA (0)
      |                                               |                |        [94]{}: instruction 0x7e8-0x7eb.7 (4)
0x07e0|                        fd 03 00 91            |        ....    |          opcode: "MOVD RSP, R29" (raw bits) 0x7e8-0x7eb.7 (4)
      |                                               |                |          op: "mov" (0x910003fd) 0x7ec-NA (0)
      |                                               |                |        [95]{}: instruction 0x7ec-0x7ef.7 (4)
0x07e0|                                    f6 ff ff 97|            ....|          opcode: "CALL -10(PC)" (raw bits) 0x7ec-0x7ef.7 (4)
      |                                               |                |          op: "bl" (0x97fffff6) 0x7f0-NA (0)
      |                                               |                |        [96]{}: instruction 0x7f0-0x7f3.7 (4)
0x07f0|94 ff ff 97                                    |....            |          opcode: "CALL -108(PC)" (raw bits) 0x7f0-0x7f3.7 (4)
      |                                               |                |          op: "bl" (0x97ffff94) 0x7f4-NA (0)
      |                                               |                |        [97]{}: instruction 0x7f4-0x7f7.7 (4)
0x07f0|            00 00 80 52                        |    ...R        |          opcode: "MOVW $0, R0" (raw bits) 0x7f4-0x7f7.7 (4)
      |                                               |                |          op: "mov" (0x52800000) 0x7f8-NA (0)
      |                                               |                |        [98]{}: instruction 0x7f8-0x7fb.7 (4)
0x07f0|                        fd 7b c1 a8            |        .{..    |          opcode: "LDP.P 16(RSP), (R29, R30)" (raw bits) 0x7f8-0x7fb.7 (4)
      |                                               |                |          op: "ldp" (0xa8c17bfd) 0x7fc-NA (0)
      |                                               |                |        [99]{}: instruction 0x7fc-0x7ff.7 (4)
0x07f0|                                    c0 03 5f d6|            .._.|          opcode: "RET" (raw bits) 0x7fc-0x7ff.7 (4)
      |                                               |                |          op: "ret" (0xd65f03c0) 0x800-NA (0)
0x1350|                        47 00 00 00            |        G...    |      name: ".text" (71) 0x1358-0x135b.7 (4)
0x1350|                                    01 00 00 00|            ....|      type: "progbits" (0x1) (Information defined by the program) 0x135c-0x135f.7 (4)
      |                                               |                |      flags{}: 0x1360-0x1367.7 (8)
0x1360|06                                             |.               |        link_order: false 0x1360-0x1360 (0.1)
0x1360|06                                             |.               |        info_link: false 0x1360.1-0x1360.1 (0.1)
0x1360|06                                             |.               |        strings: false 0x1360.2-0x1360.2 (0.1)
0x1360|06                                             |.               |        merge: false 0x1360.3-0x1360.3 (0.1)
0x1360|06                                             |.               |        unused0: 0 0x1360.4-0x1360.4 (0.1)
0x1360|06                                             |.               |        execinstr: true 0x1360.5-0x1360.5 (0.1)
0x1360|06                                             |.               |        alloc: true 0x1360.6-0x1360.6 (0.1)
0x1360|06                                             |.               |        write: false 0x1360.7-0x1360.7 (0.1)
0x1360|   00                                          | .              |        tls: false 0x1361-0x1361 (0.1)
0x1360|   00                                          | .              |        group: false 0x1361.1-0x1361.1 (0.1)
0x1360|   00                                          | .              |        os_nonconforming: false 0x1361.2-0x1361.2 (0.1)
0x1360|   00 00                                       | ..             |        unused1: 0 0x1361.3-0x1362.3 (1.1)
0x1360|      00 00                                    |  ..            |        os_specific: 0 0x1362.4-0x1363.3 (1)
0x1360|         00                                    |   .            |        processor_specific: 0 0x1363.4-0x1363.7 (0.4)
0x1360|            00 00 00 00                        |    ....        |        unused2: 0 0x1364-0x1367.7 (4)
0x1360|                        70 06 00 00 00 00 00 00|        p.......|      addr: 0x670 0x1368-0x136f.7 (8)
0x1370|70 06 00 00 00 00 00 00                        |p.......        |      offset: 0x670 0x1370-0x1377.7 (8)
0x1370|                        90 01 00 00 00 00 00 00|        ........|      size: 400 0x1378-0x137f.7 (8)
0x1380|00 00 00 00                                    |....            |      link: 0 0x1380-0x1383.7 (4)
0x1380|            00 00 00 00                        |    ....        |      info: 0 0x1384-0x1387.7 (4)
0x1380|                        10 00 00 00 00 00 00 00|        ........|      addralign: 16 0x1388-0x138f.7 (8)
0x1390|00 00 00 00 00 00 00 00                        |........        |      entsize: 0 0x1390-0x1397.7 (8)
      |                                               |                |    [10]{}: section_header 0x800-0x13d7.7 (3032)
      |                                               |                |      code[0:4]: 0x800-0x80f.7 (16)
      |                                               |                |        [0]{}: instruction 0x800-0x803.7 (4)
0x0800|fd 7b bf a9                                    |.{..            |          opcode: "STP.W (R29, R30), -16(RSP)" (raw bits) 0x800-0x803.7 (4)
      |                                               |                |          op: "stp" (0xa9bf7bfd) 0x804-NA (0)
      |                                               |                |        [1]{}: instruction 0x804-0x807.7 (4)
0x0800|            fd 03 00 91                        |    ....        |          opcode: "MOVD RSP, R29" (raw bits) 0x804-0x807.7 (4)
      |                                               |                |          op: "mov" (0x910003fd) 0x808-NA (0)
      |                                               |                |        [2]{}: instruction 0x808-0x80b.7 (4)
0x0800|                        fd 7b c1 a8            |        .{..    |          opcode: "LDP.P 16(RSP), (R29, R30)" (raw bits) 0x808-0x80b.7 (4)
      |                                               |                |          op: "ldp" (0xa8c17bfd) 0x80c-NA (0)
      |                                               |                |        [3]{}: instruction 0x80c-0x80f.7 (4)
0x0800|                                    c0 03 5f d6|            .._.|          opcode: "RET" (raw bits) 0x80c-0x80f.7 (4)
      |                                               |                |          op: "ret" (0xd65f03c0) 0x810-NA (0)
0x1390|                        4d 00 00 00            |        M...    |      name: ".fini" (77) 0x1398-0x139b.7 (4)
0x1390|                                    01 00 00 00|            ....|      type: "progbits" (0x1) (Information defined by the program) 0x139c-0x139f.7 (4)
      |                                               |                |      flags{}: 0x13a0-0x13a7.7 (8)
0x13a0|06                                             |.               |        link_order: false 0x13a0-0x13a0 (0.1)
0x13a0|06                                             |.               |        info_link: false 0x13a0.1-0x13a0.1 (0.1)
0x13a0|06                                             |.               |        strings: false 0x13a0.2-0x13a0.2 (0.1)
0x13a0|06                                             |.               |        merge: false 0x13a0.3-0x13a0.3 (0.1)
0x13a0|06                                             |.               |        unused0: 0 0x13a0.4-0x13a0.4 (0.1)
0x13a0|06                                             |.               |        execinstr: true 0x13a0.5-0x13a0.5 (0.1)
0x13a0|06                                             |.               |        alloc: true 0x13a0.6-0x13a0.6 (0.1)
0x13a0|06                                             |.               |        write: false 0x13a0.7-0x13a0.7 (0.1)
0x13a0|   00                                          | .              |        tls: false 0x13a1-0x13a1 (0.1)
0x13a0|   00                                          | .              |        group: false 0x13a1.1-0x13a1.1 (0.1)
0x13a0|   00                                          | .              |        os_nonconforming: false 0x13a1.2-0x13a1.2 (0.1)
0x13a0|   00 00                                       | ..             |        unused1: 0 0x13a1.3-0x13a2.3 (1.1)
0x13a0|      00 00                                    |  ..            |        os_specific: 0 0x13a2.4-0x13a3.3 (1)
0x13a0|         00                                    |   .            |        processor_specific: 0 0x13a3.4-0x13a3.7 (0.4)
0x13a0|            00 00 00 00                        |    ....        |        unused2: 0 0x13a4-0x13a7.7 (4)
0x13a0|                        00 08 00 00 00 00 00 00|        ........|      addr: 0x800 0x13a8-0x13af.7 (8)
0x13b0|00 08 00 00 00 00 00 00                        |........        |      offset: 0x800 0x13b0-0x13b7.7 (8)
0x13b0|                        10 00 00 00 00 00 00 00|        ........|      size: 16 0x13b8-0x13bf.7 (8)
0x13c0|00 00 00 00                                    |....            |      link: 0 0x13c0-0x13c3.7 (4)
0x13c0|            00 00 00 00                        |    ....        |      info: 0 0x13c4-0x13c7.7 (4)
0x13c0|                        04 00 00 00 00 00 00 00|        ........|      addralign: 4 0x13c8-0x13cf.7 (8)
0x13d0|00 00 00 00 00 00 00 00                        |........        |      entsize: 0 0x13d0-0x13d7.7 (8)
      |                                               |                |    [11]{}: section_header 0x810-0x1417.7 (3080)
0x0810|61 61 61 00                                    |aaa.            |      data: raw bits 0x810-0x813.7 (4)
0x13d0|                        53 00 00 00            |        S...    |      name: ".rodata" (83) 0x13d8-0x13db.7 (4)
0x13d0|                                    01 00 00 00|            ....|      type: "progbits" (0x1) (Information defined by the program) 0x13dc-0x13df.7 (4)
      |                                               |                |      flags{}: 0x13e0-0x13e7.7 (8)
0x13e0|02                                             |.               |        link_order: false 0x13e0-0x13e0 (0.1)
0x13e0|02                                             |.               |        info_link: false 0x13e0.1-0x13e0.1 (0.1)
0x13e0|02                                             |.               |        strings: false 0x13e0.2-0x13e0.2 (0.1)
0x13e0|02                                             |.               |        merge: false 0x13e0.3-0x13e0.3 (0.1)
0x13e0|02                                             |.               |        unused0: 0 0x13e0.4-0x13e0.4 (0.1)
0x13e0|02                                             |.               |        execinstr: false 0x13e0.5-0x13e0.5 (0.1)
0x13e0|02                                             |.               |        alloc: true 0x13e0.6-0x13e0.6 (0.1)
0x13e0|02                                             |.               |        write: false 0x13e0.7-0x13e0.7 (0.1)
0x13e0|   00                                          | .              |        tls: false 0x13e1-0x13e1 (0.1)
0x13e0|   00                                          | .              |        group: false 0x13e1.1-0x13e1.1 (0.1)
0x13e0|   00                                          | .              |        os_nonconforming: false 0x13e1.2-0x13e1.2 (0.1)
0x13e0|   00 00                                       | ..             |        unused1: 0 0x13e1.3-0x13e2.3 (1.1)
0x13e0|      00 00                                    |  ..            |        os_specific: 0 0x13e2.4-0x13e3.3 (1)
0x13e0|         00                                    |   .            |        processor_specific: 0 0x13e3.4-0x13e3.7 (0.4)
0x13e0|            00 00 00 00                        |    ....        |        unused2: 0 0x13e4-0x13e7.7 (4)
0x13e0|                        10 08 00 00 00 00 00 00|        ........|      addr: 0x810 0x13e8-0x13ef.7 (8)
0x13f0|10 08 00 00 00 00 00 00                        |........        |      offset: 0x810 0x13f0-0x13f7.7 (8)
0x13f0|                        04 00 00 00 00 00 00 00|        ........|      size: 4 0x13f8-0x13ff.7 (8)
0x1400|00 00 00 00                                    |....            |      link: 0 0x1400-0x1403.7 (4)
0x1400|            00 00 00 00                        |    ....        |      info: 0 0x1404-0x1407.7 (4)
0x1400|                        08 00 00 00 00 00 00 00|        ........|      addralign: 8 0x1408-0x140f.7 (8)
0x1410|00 00 00 00 00 00 00 00                        |........        |      entsize: 0 0x1410-0x1417.7 (8)
      |                                               |                |    [12]{}: section_header 0x814-0x1457.7 (3140)
0x0810|            01 1b 03 3b 38 00 00 00 06 00 00 00|    ...;8.......|      data: raw bits 0x814-0x84f.7 (60)
0x0820|ac fe ff ff 50 00 00 00 dc fe ff ff 64 00 00 00|....P.......d...|
*     |until 0x84f.7 (60)                             |                |
0x1410|                        5b 00 00 00            |        [...    |      name: ".eh_frame_hdr" (91) 0x1418-0x141b.7 (4)
0x1410|                                    01 00 00 00|            ....|      type: "progbits" (0x1) (Information defined by the program) 0x141c-0x141f.7 (4)
      |                                               |                |      flags{}: 0x1420-0x1427.7 (8)
0x1420|02                                             |.               |        link_order: false 0x1420-0x1420 (0.1)
0x1420|02                                             |.               |        info_link: false 0x1420.1-0x1420.1 (0.1)
0x1420|02                                             |.               |        strings: false 0x1420.2-0x1420.2 (0.1)
0x1420|02                                             |.               |        merge: false 0x1420.3-0x1420.3 (0.1)
0x1420|02                                             |.               |        unused0: 0 0x1420.4-0x1420.4 (0.1)
0x1420|02                                             |.               |        execinstr: false 0x1420.5-0x1420.5 (0.1)
0x1420|02                                             |.               |        alloc: true 0x1420.6-0x1420.6 (0.1)
0x1420|02                                             |.               |        write: false 0x1420.7-0x1420.7 (0.1)
0x1420|   00                                          | .              |        tls: false 0x1421-0x1421 (0.1)
0x1420|   00                                          | .              |        group: false 0x1421.1-0x1421.1 (0.1)
0x1420|   00                                          | .              |        os_nonconforming: false 0x1421.2-0x1421.2 (0.1)
0x1420|   00 00                                       | ..             |        unused1: 0 0x1421.3-0x1422.3 (1.1)
0x1420|      00 00                                    |  ..            |        os_specific: 0 0x1422.4-0x1423.3 (1)
0x1420|         00                                    |   .            |        processor_specific: 0 0x1423.4-0x1423.7 (0.4)
0x1420|            00 00 00 00                        |    ....        |        unused2: 0 0x1424-0x1427.7 (4)
0x1420|                        14 08 00 00 00 00 00 00|        ........|      addr: 0x814 0x1428-0x142f.7 (8)
0x1430|14 08 00 00 00 00 00 00                        |........        |      offset: 0x814 0x1430-0x1437.7 (8)
0x1430|                        3c 00 00 00 00 00 00 00|        <.......|      size: 60 0x1438-0x143f.7 (8)
0x1440|00 00 00 00                                    |....            |      link: 0 0x1440-0x1443.7 (4)
0x1440|            00 00 00 00                        |    ....        |      info: 0 0x1444-0x1447.7 (4)
0x1440|                        04 00 00 00 00 00 00 00|        ........|      addralign: 4 0x1448-0x144f.7 (8)
0x1450|00 00 00 00 00 00 00 00                        |........        |      entsize: 0 0x1450-0x1457.7 (8)
      |                                               |                |    [13]{}: section_header 0x850-0x1497.7 (3144)
0x0850|10 00 00 00 00 00 00 00 01 7a 52 00 04 78 1e 01|.........zR..x..|      data: raw bits 0x850-0x913.7 (196)
*     |until 0x913.7 (196)                            |                |
0x1450|                        69 00 00 00            |        i...    |      name: ".eh_frame" (105) 0x1458-0x145b.7 (4)
0x1450|                                    01 00 00 00|            ....|      type: "progbits" (0x1) (Information defined by the program) 0x145c-0x145f.7 (4)
      |                                               |                |      flags{}: 0x1460-0x1467.7 (8)
0x1460|02                                             |.               |        link_order: false 0x1460-0x1460 (0.1)
0x1460|02                                             |.               |        info_link: false 0x1460.1-0x1460.1 (0.1)
0x1460|02                                             |.               |        strings: false 0x1460.2-0x1460.2 (0.1)
0x1460|02                                             |.               |        merge: false 0x1460.3-0x1460.3 (0.1)
0x1460|02                                             |.               |        unused0: 0 0x1460.4-0x1460.4 (0.1)
0x1460|02                                             |.               |        execinstr: false 0x1460.5-0x1460.5 (0.1)
0x1460|02                                             |.               |        alloc: true 0x1460.6-0x1460.6 (0.1)
0x1460|02                                             |.               |        write: false 0x1460.7-0x1460.7 (0.1)
0x1460|   00                                          | .              |        tls: false 0x1461-0x1461 (0.1)
0x1460|   00                                          | .              |        group: false 0x1461.1-0x1461.1 (0.1)
0x1460|   00                                          | .              |        os_nonconforming: false 0x1461.2-0x1461.2 (0.1)
0x1460|   00 00                                       | ..             |        unused1: 0 0x1461.3-0x1462.3 (1.1)
0x1460|      00 00                                    |  ..            |        os_specific: 0 0x1462.4-0x1463.3 (1)
0x1460|         00                                    |   .            |        processor_specific: 0 0x1463.4-0x1463.7 (0.4)
0x1460|            00 00 00 00                        |    ....        |        unused2: 0 0x1464-0x1467.7 (4)
0x1460|                        50 08 00 00 00 00 00 00|        P.......|      addr: 0x850 0x1468-0x146f.7 (8)
0x1470|50 08 00 00 00 00 00 00                        |P.......        |      offset: 0x850 0x1470-0x1477.7 (8)
0x1470|                        c4 00 00 00 00 00 00 00|        ........|      size: 196 0x1478-0x147f.7 (8)
0x1480|00 00 00 00                                    |....            |      link: 0 0x1480-0x1483.7 (4)
0x1480|            00 00 00 00                        |    ....        |      info: 0 0x1484-0x1487.7 (4)
0x1480|                        08 00 00 00 00 00 00 00|        ........|      addralign: 8 0x1488-0x148f.7 (8)
0x1490|00 00 00 00 00 00 00 00                        |........        |      entsize: 0 0x1490-0x1497.7 (8)
      |                                               |                |    [14]{}: section_header 0xd90-0x14d7.7 (1864)
0x0d90|90 07 00 00 00 00 00 00                        |........        |      data: raw bits 0xd90-0xd97.7 (8)
0x1490|                        73 00 00 00            |        s...    |      name: ".init_array" (115) 0x1498-0x149b.7 (4)
0x1490|                                    0e 00 00 00|            ....|      type: "init_array" (0xe) (Initialization functions) 0x149c-0x149f.7 (4)
      |                                               |                |      flags{}: 0x14a0-0x14a7.7 (8)
0x14a0|03                                             |.               |        link_order: false 0x14a0-0x14a0 (0.1)
0x14a0|03                                             |.               |        info_link: false 0x14a0.1-0x14a0.1 (0.1)
0x14a0|03                                             |.               |        strings: false 0x14a0.2-0x14a0.2 (0.1)
0x14a0|03                                             |.               |        merge: false 0x14a0.3-0x14a0.3 (0.1)
0x14a0|03                                             |.               |        unused0: 0 0x14a0.4-0x14a0.4 (0.1)
0x14a0|03                                             |.               |        execinstr: false 0x14a0.5-0x14a0.5 (0.1)
0x14a0|03                                             |.               |        alloc: true 0x14a0.6-0x14a0.6 (0.1)
0x14a0|03                                             |.               |        write: true 0x14a0.7-0x14a0.7 (0.1)
0x14a0|   00                                          | .              |        tls: false 0x14a1-0x14a1 (0.1)
0x14a0|   00                                          | .              |        group: false 0x14a1.1-0x14a1.1 (0.1)
0x14a0|   00                                          | .              |        os_nonconforming: false 0x14a1.2-0x14a1.2 (0.1)
0x14a0|   00 00                                       | ..             |        unused1: 0 0x14a1.3-0x14a2.3 (1.1)
0x14a0|      00 00                                    |  ..            |        os_specific: 0 0x14a2.4-0x14a3.3 (1)
0x14a0|         00                                    |   .            |        processor_specific: 0 0x14a3.4-0x14a3.7 (0.4)
0x14a0|            00 00 00 00                        |    ....        |        unused2: 0 0x14a4-0x14a7.7 (4)
0x14a0|                        90 0d 01 00 00 00 00 00|        ........|      addr: 0x10d90 0x14a8-0x14af.7 (8)
0x14b0|90 0d 00 00 00 00 00 00                        |........        |      offset: 0xd90 0x14b0-0x14b7.7 (8)
0x14b0|                        08 00 00 00 00 00 00 00|        ........|      size: 8 0x14b8-0x14bf.7 (8)
0x14c0|00 00 00 00                                    |....            |      link: 0 0x14c0-0x14c3.7 (4)
0x14c0|            00 00 00 00                        |    ....        |      info: 0 0x14c4-0x14c7.7 (4)
0x14c0|                        08 00 00 00 00 00 00 00|        ........|      addralign: 8 0x14c8-0x14cf.7 (8)
0x14d0|08 00 00 00 00 00 00 00                        |........        |      entsize: 8 0x14d0-0x14d7.7 (8)
      |                                               |                |    [15]{}: section_header 0xd98-0x1517.7 (1920)
0x0d90|                        30 07 00 00 00 00 00 00|        0.......|      data: raw bits 0xd98-0xd9f.7 (8)
0x14d0|                        7f 00 00 00            |        ....    |      name: ".fini_array" (127) 0x14d8-0x14db.7 (4)
0x14d0|                                    0f 00 00 00|            ....|      type: "fini_array" (0xf) (Termination functions) 0x14dc-0x14df.7 (4)
      |                                               |                |      flags{}: 0x14e0-0x14e7.7 (8)
0x14e0|03                                             |.               |        link_order: false 0x14e0-0x14e0 (0.1)
0x14e0|03                                             |.               |        info_link: false 0x14e0.1-0x14e0.1 (0.1)
0x14e0|03                                             |.               |        strings: false 0x14e0.2-0x14e0.2 (0.1)
0x14e0|03                                             |.               |        merge: false 0x14e0.3-0x14e0.3 (0.1)
0x14e0|03                                             |.               |        unused0: 0 0x14e0.4-0x14e0.4 (0.1)
0x14e0|03                                             |.               |        execinstr: false 0x14e0.5-0x14e0.5 (0.1)
0x14e0|03                                             |.               |        alloc: true 0x14e0.6-0x14e0.6 (0.1)
0x14e0|03                                             |.               |        write: true 0x14e0.7-0x14e0.7 (0.1)
0x14e0|   00                                          | .              |        tls: false 0x14e1-0x14e1 (0.1)
0x14e0|   00                                          | .              |        group: false 0x14e1.1-0x14e1.1 (0.1)
0x14e0|   00                                          | .              |        os_nonconforming: false 0x14e1.2-0x14e1.2 (0.1)
0x14e0|   00 00                                       | ..             |        unused1: 0 0x14e1.3-0x14e2.3 (1.1)
0x14e0|      00 00                                    |  ..            |        os_specific: 0 0x14e2.4-0x14e3.3 (1)
0x14e0|         00                                    |   .            |        processor_specific: 0 0x14e3.4-0x14e3.7 (0.4)
0x14e0|            00 00 00 00                        |    ....        |        unused2: 0 0x14e4-0x14e7.7 (4)
0x14e0|                        98 0d 01 00 00 00 00 00|        ........|      addr: 0x10d98 0x14e8-0x14ef.7 (8)
0x14f0|98 0d 00 00 00 00 00 00                        |........        |      offset: 0xd98 0x14f0-0x14f7.7 (8)
0x14f0|                        08 00 00 00 00 00 00 00|        ........|      size: 8 0x14f8-0x14ff.7 (8)
0x1500|00 00 00 00                                    |....            |      link: 0 0x1500-0x1503.7 (4)
0x1500|            00 00 00 00                        |    ....        |      info: 0 0x1504-0x1507.7 (4)
0x1500|                        08 00 00 00 00 00 00 00|        ........|      addralign: 8 0x1508-0x150f.7 (8)
0x1510|08 00 00 00 00 00 00 00                        |........        |      entsize: 8 0x1510-0x1517.7 (8)
      |                                               |                |    [16]{}: section_header 0xda0-0x1557.7 (1976)
      |                                               |                |      dynamic_tags[0:25]: 0xda0-0xf2f.7 (400)
      |                                               |                |        [0]{}: dynamic_tags 0xda0-0xdaf.7 (16)
0x0da0|01 00 00 00 00 00 00 00                        |........        |          tag: "needed" (1) (String table offset to name of a needed library) 0xda0-0xda7.7 (8)
0x0da0|                        a2 00 00 00 00 00 00 00|        ........|          val: "libbbb.so" (162) 0xda8-0xdaf.7 (8)
      |                                               |                |        [1]{}: dynamic_tags 0xdb0-0xdbf.7 (16)
0x0db0|01 00 00 00 00 00 00 00                        |........        |          tag: "needed" (1) (String table offset to name of a needed library) 0xdb0-0xdb7.7 (8)
0x0db0|                        ac 00 00 00 00 00 00 00|        ........|          val: "libc.musl-aarch64.so.1" (172) 0xdb8-0xdbf.7 (8)
      |                                               |                |        [2]{}: dynamic_tags 0xdc0-0xdcf.7 (16)
0x0dc0|0c 00 00 00 00 00 00 00                        |........        |          tag: "init" (12) (Address of the initialization function) 0xdc0-0xdc7.7 (8)
0x0dc0|                        e0 05 00 00 00 00 00 00|        ........|          ptr: 0x5e0 0xdc8-0xdcf.7 (8)
      |                                               |                |          section_index: 7 0xdd0-NA (0)
      |                                               |                |        [3]{}: dynamic_tags 0xdd0-0xddf.7 (16)
0x0dd0|0d 00 00 00 00 00 00 00                        |........        |          tag: "fini" (13) (Address of the termination function) 0xdd0-0xdd7.7 (8)
0x0dd0|                        00 08 00 00 00 00 00 00|        ........|          ptr: 0x800 0xdd8-0xddf.7 (8)
      |                                               |                |          section_index: 10 0xde0-NA (0)
      |                                               |                |        [4]{}: dynamic_tags 0xde0-0xdef.7 (16)
0x0de0|19 00 00 00 00 00 00 00                        |........        |          tag: "init_array" (25) (Address of the array of pointers to initialization functions) 0xde0-0xde7.7 (8)
0x0de0|                        90 0d 01 00 00 00 00 00|        ........|          ptr: 0x10d90 0xde8-0xdef.7 (8)
      |                                               |                |        [5]{}: dynamic_tags 0xdf0-0xdff.7 (16)
0x0df0|1b 00 00 00 00 00 00 00                        |........        |          tag: "init_arraysz" (27) (Size in bytes of the array of initialization functions) 0xdf0-0xdf7.7 (8)
0x0df0|                        08 00 00 00 00 00 00 00|        ........|          val: 8 0xdf8-0xdff.7 (8)
      |                                               |                |        [6]{}: dynamic_tags 0xe00-0xe0f.7 (16)
0x0e00|1a 00 00 00 00 00 00 00                        |........        |          tag: "fini_array" (26) (Address of the array of pointers to termination functions) 0xe00-0xe07.7 (8)
0x0e00|                        98 0d 01 00 00 00 00 00|        ........|          ptr: 0x10d98 0xe08-0xe0f.7 (8)
      |                                               |                |        [7]{}: dynamic_tags 0xe10-0xe1f.7 (16)
0x0e10|1c 00 00 00 00 00 00 00                        |........        |          tag: "fini_arraysz" (28) (Size in bytes of the array of termination functions ) 0xe10-0xe17.7 (8)
0x0e10|                        08 00 00 00 00 00 00 00|        ........|          val: 8 0xe18-0xe1f.7 (8)
      |                                               |                |        [8]{}: dynamic_tags 0xe20-0xe2f.7 (16)
0x0e20|f5 fe ff 6f 00 00 00 00                        |...o....        |          tag: 1879047925 0xe20-0xe27.7 (8)
0x0e20|                        20 02 00 00 00 00 00 00|         .......|          unspecified: 0x220 0xe28-0xe2f.7 (8)
      |                                               |                |        [9]{}: dynamic_tags 0xe30-0xe3f.7 (16)
0x0e30|05 00 00 00 00 00 00 00                        |........        |          tag: "strtab" (5) (Address of string table) 0xe30-0xe37.7 (8)
0x0e30|                        80 03 00 00 00 00 00 00|        ........|          ptr: 0x380 0xe38-0xe3f.7 (8)
      |                                               |                |          section_index: 4 0xe40-NA (0)
      |                                               |                |        [10]{}: dynamic_tags 0xe40-0xe4f.7 (16)
0x0e40|06 00 00 00 00 00 00 00                        |........        |          tag: "symtab" (6) (Address of symbol table) 0xe40-0xe47.7 (8)
0x0e40|                        48 02 00 00 00 00 00 00|        H.......|          ptr: 0x248 0xe48-0xe4f.7 (8)
      |                                               |                |          section_index: 3 0xe50-NA (0)
      |                                               |                |        [11]{}: dynamic_tags 0xe50-0xe5f.7 (16)
0x0e50|0a 00 00 00 00 00 00 00                        |........        |          tag: "strsz" (10) (Size in bytes of string table) 0xe50-0xe57.7 (8)
0x0e50|                        c3 00 00 00 00 00 00 00|        ........|          val: 195 0xe58-0xe5f.7 (8)
      |                                               |                |        [12]{}: dynamic_tags 0xe60-0xe6f.7 (16)
0x0e60|0b 00 00 00 00 00 00 00                        |........        |          tag: "syment" (11) (Size in bytes of a symbol table entry) 0xe60-0xe67.7 (8)
0x0e60|                        18 00 00 00 00 00 00 00|        ........|          val: 24 0xe68-0xe6f.7 (8)
      |                                               |                |        [13]{}: dynamic_tags 0xe70-0xe7f.7 (16)
0x0e70|15 00 00 00 00 00 00 00                        |........        |          tag: "debug" (21) (Undefined use for debugging) 0xe70-0xe77.7 (8)
0x0e70|                        00 00 00 00 00 00 00 00|        ........|          ptr: 0x0 0xe78-0xe7f.7 (8)
      |                                               |                |        [14]{}: dynamic_tags 0xe80-0xe8f.7 (16)
0x0e80|03 00 00 00 00 00 00 00                        |........        |          tag: "pltgot" (3) (Address of PLT and/or GOT) 0xe80-0xe87.7 (8)
0x0e80|                        70 0f 01 00 00 00 00 00|        p.......|          ptr: 0x10f70 0xe88-0xe8f.7 (8)
      |                                               |                |          section_index: 17 0xe90-NA (0)
      |                                               |                |        [15]{}: dynamic_tags 0xe90-0xe9f.7 (16)
0x0e90|02 00 00 00 00 00 00 00                        |........        |          tag: "pltrelsz" (2) (Size in bytes of PLT relocation entries) 0xe90-0xe97.7 (8)
0x0e90|                        90 00 00 00 00 00 00 00|        ........|          val: 144 0xe98-0xe9f.7 (8)
      |                                               |                |        [16]{}: dynamic_tags 0xea0-0xeaf.7 (16)
0x0ea0|14 00 00 00 00 00 00 00                        |........        |          tag: "pltrel" (20) (Type of relocation entry to which the PLT refers (Rela or Rel)) 0xea0-0xea7.7 (8)
0x0ea0|                        07 00 00 00 00 00 00 00|        ........|          val: 7 0xea8-0xeaf.7 (8)
      |                                               |                |        [17]{}: dynamic_tags 0xeb0-0xebf.7 (16)
0x0eb0|17 00 00 00 00 00 00 00                        |........        |          tag: "jmprel" (23) (Address of relocation entries associated solely with the PLT) 0xeb0-0xeb7.7 (8)
0x0eb0|                        50 05 00 00 00 00 00 00|        P.......|          ptr: 0x550 0xeb8-0xebf.7 (8)
      |                                               |                |          section_index: 6 0xec0-NA (0)
      |                                               |                |        [18]{}: dynamic_tags 0xec0-0xecf.7 (16)
0x0ec0|07 00 00 00 00 00 00 00                        |........        |          tag: "rela" (7) (Address of Rela relocation table) 0xec0-0xec7.7 (8)
0x0ec0|                        48 04 00 00 00 00 00 00|        H.......|          ptr: 0x448 0xec8-0xecf.7 (8)
      |                                               |                |        [19]{}: dynamic_tags 0xed0-0xedf.7 (16)
0x0ed0|08 00 00 00 00 00 00 00                        |........        |          tag: "relasz" (8) (Size in bytes of the Rela relocation table) 0xed0-0xed7.7 (8)
0x0ed0|                        08 01 00 00 00 00 00 00|        ........|          val: 264 0xed8-0xedf.7 (8)
      |                                               |                |        [20]{}: dynamic_tags 0xee0-0xeef.7 (16)
0x0ee0|09 00 00 00 00 00 00 00                        |........        |          tag: "relaent" (9) (Size in bytes of a Rela relocation table entry) 0xee0-0xee7.7 (8)
0x0ee0|                        18 00 00 00 00 00 00 00|        ........|          val: 24 0xee8-0xeef.7 (8)
      |                                               |                |        [21]{}: dynamic_tags 0xef0-0xeff.7 (16)
0x0ef0|18 00 00 00 00 00 00 00                        |........        |          tag: "bind_now" (24) (Instruct dynamic linker to process all relocations before transferring control to the executable) 0xef0-0xef7.7 (8)
0x0ef0|                        00 00 00 00 00 00 00 00|        ........|          ignored: 0x0 0xef8-0xeff.7 (8)
      |                                               |                |        [22]{}: dynamic_tags 0xf00-0xf0f.7 (16)
0x0f00|fb ff ff 6f 00 00 00 00                        |...o....        |          tag: 1879048187 0xf00-0xf07.7 (8)
0x0f00|                        01 00 00 08 00 00 00 00|        ........|          unspecified: 0x8000001 0xf08-0xf0f.7 (8)
      |                                               |                |        [23]{}: dynamic_tags 0xf10-0xf1f.7 (16)
0x0f10|f9 ff ff 6f 00 00 00 00                        |...o....        |          tag: 1879048185 0xf10-0xf17.7 (8)
0x0f10|                        06 00 00 00 00 00 00 00|        ........|          unspecified: 0x6 0xf18-0xf1f.7 (8)
      |                                               |                |        [24]{}: dynamic_tags 0xf20-0xf2f.7 (16)
0x0f20|00 00 00 00 00 00 00 00                        |........        |          tag: "null" (0) (Marks end of dynamic section) 0xf20-0xf27.7 (8)
0x0f20|                        00 00 00 00 00 00 00 00|        ........|          ignored: 0x0 0xf28-0xf2f.7 (8)
0x1510|                        8b 00 00 00            |        ....    |      name: ".dynamic" (139) 0x1518-0x151b.7 (4)
0x1510|                                    06 00 00 00|            ....|      type: "dynamic" (0x6) (Information for dynamic linking) 0x151c-0x151f.7 (4)
      |                                               |                |      flags{}: 0x1520-0x1527.7 (8)
0x1520|03                                             |.               |        link_order: false 0x1520-0x1520 (0.1)
0x1520|03                                             |.               |        info_link: false 0x1520.1-0x1520.1 (0.1)
0x1520|03                                             |.               |        strings: false 0x1520.2-0x1520.2 (0.1)
0x1520|03                                             |.               |        merge: false 0x1520.3-0x1520.3 (0.1)
0x1520|03                                             |.               |        unused0: 0 0x1520.4-0x1520.4 (0.1)
0x1520|03                                             |.               |        execinstr: false 0x1520.5-0x1520.5 (0.1)
0x1520|03                                             |.               |        alloc: true 0x1520.6-0x1520.6 (0.1)
0x1520|03                                             |.               |        write: true 0x1520.7-0x1520.7 (0.1)
0x1520|   00                                          | .              |        tls: false 0x1521-0x1521 (0.1)
0x1520|   00                                          | .              |        group: false 0x1521.1-0x1521.1 (0.1)
0x1520|   00                                          | .              |        os_nonconforming: false 0x1521.2-0x1521.2 (0.1)
0x1520|   00 00                                       | ..             |        unused1: 0 0x1521.3-0x1522.3 (1.1)
0x1520|      00 00                                    |  ..            |        os_specific: 0 0x1522.4-0x1523.3 (1)
0x1520|         00                                    |   .            |        processor_specific: 0 0x1523.4-0x1523.7 (0.4)
0x1520|            00 00 00 00                        |    ....        |        unused2: 0 0x1524-0x1527.7 (4)
0x1520|                        a0 0d 01 00 00 00 00 00|        ........|      addr: 0x10da0 0x1528-0x152f.7 (8)
0x1530|a0 0d 00 00 00 00 00 00                        |........        |      offset: 0xda0 0x1530-0x1537.7 (8)
0x1530|                        d0 01 00 00 00 00 00 00|        ........|      size: 464 0x1538-0x153f.7 (8)
0x1540|04 00 00 00                                    |....            |      link: 4 0x1540-0x1543.7 (4)
0x1540|            00 00 00 00                        |    ....        |      info: 0 0x1544-0x1547.7 (4)
0x1540|                        08 00 00 00 00 00 00 00|        ........|      addralign: 8 0x1548-0x154f.7 (8)
0x1550|10 00 00 00 00 00 00 00                        |........        |      entsize: 16 0x1550-0x1557.7 (8)
      |                                               |                |    [17]{}: section_header 0xf70-0x1597.7 (1576)
0x0f70|00 00 00 00 00 00 00 00 00 00 00 00 00 00 00 00|................|      data: raw bits 0xf70-0xfff.7 (144)
*     |until 0xfff.7 (144)                            |                |
0x1550|                        94 00 00 00            |        ....    |      name: ".got" (148) 0x1558-0x155b.7 (4)
0x1550|                                    01 00 00 00|            ....|      type: "progbits" (0x1) (Information defined by the program) 0x155c-0x155f.7 (4)
      |                                               |                |      flags{}: 0x1560-0x1567.7 (8)
0x1560|03                                             |.               |        link_order: false 0x1560-0x1560 (0.1)
0x1560|03                                             |.               |        info_link: false 0x1560.1-0x1560.1 (0.1)
0x1560|03                                             |.               |        strings: false 0x1560.2-0x1560.2 (0.1)
0x1560|03                                             |.               |        merge: false 0x1560.3-0x1560.3 (0.1)
0x1560|03                                             |.               |        unused0: 0 0x1560.4-0x1560.4 (0.1)
0x1560|03                                             |.               |        execinstr: false 0x1560.5-0x1560.5 (0.1)
0x1560|03                                             |.               |        alloc: true 0x1560.6-0x1560.6 (0.1)
0x1560|03                                             |.               |        write: true 0x1560.7-0x1560.7 (0.1)
0x1560|   00                                          | .              |        tls: false 0x1561-0x1561 (0.1)
0x1560|   00                                          | .              |        group: false 0x1561.1-0x1561.1 (0.1)
0x1560|   00                                          | .              |        os_nonconforming: false 0x1561.2-0x1561.2 (0.1)
0x1560|   00 00                                       | ..             |        unused1: 0 0x1561.3-0x1562.3 (1.1)
0x1560|      00 00                                    |  ..            |        os_specific: 0 0x1562.4-0x1563.3 (1)
0x1560|         00                                    |   .            |        processor_specific: 0 0x1563.4-0x1563.7 (0.4)
0x1560|            00 00 00 00                        |    ....        |        unused2: 0 0x1564-0x1567.7 (4)
0x1560|                        70 0f 01 00 00 00 00 00|        p.......|      addr: 0x10f70 0x1568-0x156f.7 (8)
0x1570|70 0f 00 00 00 00 00 00                        |p.......        |      offset: 0xf70 0x1570-0x1577.7 (8)
0x1570|                        90 00 00 00 00 00 00 00|        ........|      size: 144 0x1578-0x157f.7 (8)
0x1580|00 00 00 00                                    |....            |      link: 0 0x1580-0x1583.7 (4)
0x1580|            00 00 00 00                        |    ....        |      info: 0 0x1584-0x1587.7 (4)
0x1580|                        08 00 00 00 00 00 00 00|        ........|      addralign: 8 0x1588-0x158f.7 (8)
0x1590|08 00 00 00 00 00 00 00                        |........        |      entsize: 8 0x1590-0x1597.7 (8)
      |                                               |                |    [18]{}: section_header 0x1000-0x15d7.7 (1496)
0x1000|00 10 01 00 00 00 00 00                        |........        |      data: raw bits 0x1000-0x1007.7 (8)
0x1590|                        99 00 00 00            |        ....    |      name: ".data" (153) 0x1598-0x159b.7 (4)
0x1590|                                    01 00 00 00|            ....|      type: "progbits" (0x1) (Information defined by the program) 0x159c-0x159f.7 (4)
      |                                               |                |      flags{}: 0x15a0-0x15a7.7 (8)
0x15a0|03                                             |.               |        link_order: false 0x15a0-0x15a0 (0.1)
0x15a0|03                                             |.               |        info_link: false 0x15a0.1-0x15a0.1 (0.1)
0x15a0|03                                             |.               |        strings: false 0x15a0.2-0x15a0.2 (0.1)
0x15a0|03                                             |.               |        merge: false 0x15a0.3-0x15a0.3 (0.1)
0x15a0|03                                             |.               |        unused0: 0 0x15a0.4-0x15a0.4 (0.1)
0x15a0|03                                             |.               |        execinstr: false 0x15a0.5-0x15a0.5 (0.1)
0x15a0|03                                             |.               |        alloc: true 0x15a0.6-0x15a0.6 (0.1)
0x15a0|03                                             |.               |        write: true 0x15a0.7-0x15a0.7 (0.1)
0x15a0|   00                                          | .              |        tls: false 0x15a1-0x15a1 (0.1)
0x15a0|   00                                          | .              |        group: false 0x15a1.1-0x15a1.1 (0.1)
0x15a0|   00                                          | .              |        os_nonconforming: false 0x15a1.2-0x15a1.2 (0.1)
0x15a0|   00 00                                       | ..             |        unused1: 0 0x15a1.3-0x15a2.3 (1.1)
0x15a0|      00 00                                    |  ..            |        os_specific: 0 0x15a2.4-0x15a3.3 (1)
0x15a0|         00                                    |   .            |        processor_specific: 0 0x15a3.4-0x15a3.7 (0.4)
0x15a0|            00 00 00 00                        |    ....        |        unused2: 0 0x15a4-0x15a7.7 (4)
0x15a0|                        00 10 01 00 00 00 00 00|        ........|      addr: 0x11000 0x15a8-0x15af.7 (8)
0x15b0|00 10 00 00 00 00 00 00                        |........        |      offset: 0x1000 0x15b0-0x15b7.7 (8)
0x15b0|                        08 00 00 00 00 00 00 00|        ........|      size: 8 0x15b8-0x15bf.7 (8)
0x15c0|00 00 00 00                                    |....            |      link: 0 0x15c0-0x15c3.7 (4)
0x15c0|            00 00 00 00                        |    ....        |      info: 0 0x15c4-0x15c7.7 (4)
0x15c0|                        08 00 00 00 00 00 00 00|        ........|      addralign: 8 0x15c8-0x15cf.7 (8)
0x15d0|00 00 00 00 00 00 00 00                        |........        |      entsize: 0 0x15d0-0x15d7.7 (8)
      |                                               |                |    [19]{}: section_header 0x1008-0x1657.7 (1616)
0x1000|                        47 43 43 3a 20 28 41 6c|        GCC: (Al|      data: raw bits 0x1008-0x1069.7 (98)
0x1010|70 69 6e 65 20 31 30 2e 33 2e 31 5f 67 69 74 32|pine 10.3.1_git2|
*     |until 0x1069.7 (98)                            |                |
0x1610|                        a4 00 00 00            |        ....    |      name: ".comment" (164) 0x1618-0x161b.7 (4)
0x1610|                                    01 00 00 00|            ....|      type: "progbits" (0x1) (Information defined by the program) 0x161c-0x161f.7 (4)
      |                                               |                |      flags{}: 0x1620-0x1627.7 (8)
0x1620|30                                             |0               |        link_order: false 0x1620-0x1620 (0.1)
0x1620|30                                             |0               |        info_link: false 0x1620.1-0x1620.1 (0.1)
0x1620|30                                             |0               |        strings: true 0x1620.2-0x1620.2 (0.1)
0x1620|30                                             |0               |        merge: true 0x1620.3-0x1620.3 (0.1)
0x1620|30                                             |0               |        unused0: 0 0x1620.4-0x1620.4 (0.1)
0x1620|30                                             |0               |        execinstr: false 0x1620.5-0x1620.5 (0.1)
0x1620|30                                             |0               |        alloc: false 0x1620.6-0x1620.6 (0.1)
0x1620|30                                             |0               |        write: false 0x1620.7-0x1620.7 (0.1)
0x1620|   00                                          | .              |        tls: false 0x1621-0x1621 (0.1)
0x1620|   00                                          | .              |        group: false 0x1621.1-0x1621.1 (0.1)
0x1620|   00                                          | .              |        os_nonconforming: false 0x1621.2-0x1621.2 (0.1)
0x1620|   00 00                                       | ..             |        unused1: 0 0x1621.3-0x1622.3 (1.1)
0x1620|      00 00                                    |  ..            |        os_specific: 0 0x1622.4-0x1623.3 (1)
0x1620|         00                                    |   .            |        processor_specific: 0 0x1623.4-0x1623.7 (0.4)
0x1620|            00 00 00 00                        |    ....        |        unused2: 0 0x1624-0x1627.7 (4)
0x1620|                        00 00 00 00 00 00 00 00|        ........|      addr: 0x0 0x1628-0x162f.7 (8)
0x1630|08 10 00 00 00 00 00 00                        |........        |      offset: 0x1008 0x1630-0x1637.7 (8)
0x1630|                        62 00 00 00 00 00 00 00|        b.......|      size: 98 0x1638-0x163f.7 (8)
0x1640|00 00 00 00                                    |....            |      link: 0 0x1640-0x1643.7 (4)
0x1640|            00 00 00 00                        |    ....        |      info: 0 0x1644-0x1647.7 (4)
0x1640|                        01 00 00 00 00 00 00 00|        ........|      addralign: 1 0x1648-0x164f.7 (8)
0x1650|01 00 00 00 00 00 00 00                        |........        |      entsize: 1 0x1650-0x1657.7 (8)
      |                                               |                |    [20]{}: section_header 0x106a-0x1697.7 (1582)
0x1060|                              00 2e 73 68 73 74|          ..shst|      string: "\x00.shstrtab\x00.interp\x00.gnu.hash\x00.dynsym\x00.dynstr\x00.rela"... 0x106a-0x1116.7 (173)
0x1070|72 74 61 62 00 2e 69 6e 74 65 72 70 00 2e 67 6e|rtab..interp..gn|
*     |until 0x1116.7 (173)                           |                |
0x1650|                        01 00 00 00            |        ....    |      name: ".shstrtab" (1) 0x1658-0x165b.7 (4)
0x1650|                                    03 00 00 00|            ....|      type: "strtab" (0x3) (String table) 0x165c-0x165f.7 (4)
      |                                               |                |      flags{}: 0x1660-0x1667.7 (8)
0x1660|00                                             |.               |        link_order: false 0x1660-0x1660 (0.1)
0x1660|00                                             |.               |        info_link: false 0x1660.1-0x1660.1 (0.1)
0x1660|00                                             |.               |        strings: false 0x1660.2-0x1660.2 (0.1)
0x1660|00                                             |.               |        merge: false 0x1660.3-0x1660.3 (0.1)
0x1660|00                                             |.               |        unused0: 0 0x1660.4-0x1660.4 (0.1)
0x1660|00                                             |.               |        execinstr: false 0x1660.5-0x1660.5 (0.1)
0x1660|00                                             |.               |        alloc: false 0x1660.6-0x1660.6 (0.1)
0x1660|00                                             |.               |        write: false 0x1660.7-0x1660.7 (0.1)
0x1660|   00                                          | .              |        tls: false 0x1661-0x1661 (0.1)
0x1660|   00                                          | .              |        group: false 0x1661.1-0x1661.1 (0.1)
0x1660|   00                                          | .              |        os_nonconforming: false 0x1661.2-0x1661.2 (0.1)
0x1660|   00 00                                       | ..             |        unused1: 0 0x1661.3-0x1662.3 (1.1)
0x1660|      00 00                                    |  ..            |        os_specific: 0 0x1662.4-0x1663.3 (1)
0x1660|         00                                    |   .            |        processor_specific: 0 0x1663.4-0x1663.7 (0.4)
0x1660|            00 00 00 00                        |    ....        |        unused2: 0 0x1664-0x1667.7 (4)
0x1660|                        00 00 00 00 00 00 00 00|        ........|      addr: 0x0 0x1668-0x166f.7 (8)
0x1670|6a 10 00 00 00 00 00 00                        |j.......        |      offset: 0x106a 0x1670-0x1677.7 (8)
0x1670|                        ad 00 00 00 00 00 00 00|        ........|      size: 173 0x1678-0x167f.7 (8)
0x1680|00 00 00 00                                    |....            |      link: 0 0x1680-0x1683.7 (4)
0x1680|            00 00 00 00                        |    ....        |      info: 0 0x1684-0x1687.7 (4)
0x1680|                        01 00 00 00 00 00 00 00|        ........|      addralign: 1 0x1688-0x168f.7 (8)
0x1690|00 00 00 00 00 00 00 00|                       |........|       |      entsize: 0 0x1690-0x1697.7 (8)
      |                                               |                |    [21]{}: section_header 0x15d8-0x1617.7 (64)
0x15d0|                        9f 00 00 00            |        ....    |      name: ".bss" (159) 0x15d8-0x15db.7 (4)
0x15d0|                                    08 00 00 00|            ....|      type: "nobits" (0x8) (No space in the file) 0x15dc-0x15df.7 (4)
      |                                               |                |      flags{}: 0x15e0-0x15e7.7 (8)
0x15e0|03                                             |.               |        link_order: false 0x15e0-0x15e0 (0.1)
0x15e0|03                                             |.               |        info_link: false 0x15e0.1-0x15e0.1 (0.1)
0x15e0|03                                             |.               |        strings: false 0x15e0.2-0x15e0.2 (0.1)
0x15e0|03                                             |.               |        merge: false 0x15e0.3-0x15e0.3 (0.1)
0x15e0|03                                             |.               |        unused0: 0 0x15e0.4-0x15e0.4 (0.1)
0x15e0|03                                             |.               |        execinstr: false 0x15e0.5-0x15e0.5 (0.1)
0x15e0|03                                             |.               |        alloc: true 0x15e0.6-0x15e0.6 (0.1)
0x15e0|03                                             |.               |        write: true 0x15e0.7-0x15e0.7 (0.1)
0x15e0|   00                                          | .              |        tls: false 0x15e1-0x15e1 (0.1)
0x15e0|   00                                          | .              |        group: false 0x15e1.1-0x15e1.1 (0.1)
0x15e0|   00                                          | .              |        os_nonconforming: false 0x15e1.2-0x15e1.2 (0.1)
0x15e0|   00 00                                       | ..             |        unused1: 0 0x15e1.3-0x15e2.3 (1.1)
0x15e0|      00 00                                    |  ..            |        os_specific: 0 0x15e2.4-0x15e3.3 (1)
0x15e0|         00                                    |   .            |        processor_specific: 0 0x15e3.4-0x15e3.7 (0.4)
0x15e0|            00 00 00 00                        |    ....        |        unused2: 0 0x15e4-0x15e7.7 (4)
0x15e0|                        08 10 01 00 00 00 00 00|        ........|      addr: 0x11008 0x15e8-0x15ef.7 (8)
0x15f0|08 10 00 00 00 00 00 00                        |........        |      offset: 0x1008 0x15f0-0x15f7.7 (8)
0x15f0|                        38 00 00 00 00 00 00 00|        8.......|      size: 56 0x15f8-0x15ff.7 (8)
0x1600|00 00 00 00                                    |....            |      link: 0 0x1600-0x1603.7 (4)
0x1600|            00 00 00 00                        |    ....        |      info: 0 0x1604-0x1607.7 (4)
0x1600|                        08 00 00 00 00 00 00 00|        ........|      addralign: 8 0x1608-0x160f.7 (8)
0x1610|00 00 00 00 00 00 00 00                        |........        |      entsize: 0 0x1610-0x1617.7 (8)
0x0910|            00 00 00 00 00 00 00 00 00 00 00 00|    ............|  unknown0: raw bits 0x914-0xd8f.7 (1148)
0x0920|00 00 00 00 00 00 00 00 00 00 00 00 00 00 00 00|................|
*     |until 0xd8f.7 (1148)                           |                |
0x1110|                     00                        |       .        |  unknown1: raw bits 0x1117-0x1117.7 (1)
